 Attitude_Control_System_of_Flying_Vehicle_sfun

 Timestamp is 5c25cf58 (Fri Dec 28 15:23:04 2018)

 Preferred load address is 0000000180000000

 Start         Length     Name                   Class
 0001:00000000 0000f397H .text$mn                CODE
 0001:0000f3a0 00000012H .text$mn$00             CODE
 0001:0000f3b2 00000081H .text$x                 CODE
 0002:00000000 000004b8H .idata$5                DATA
 0002:000004b8 00000010H .00cfg                  DATA
 0002:000004c8 00000008H .CRT$XCA                DATA
 0002:000004d0 00000008H .CRT$XCZ                DATA
 0002:000004d8 00000008H .CRT$XIA                DATA
 0002:000004e0 00000008H .CRT$XIZ                DATA
 0002:000004e8 00000008H .CRT$XPA                DATA
 0002:000004f0 00000008H .CRT$XPZ                DATA
 0002:000004f8 00000008H .CRT$XTA                DATA
 0002:00000500 00000008H .CRT$XTZ                DATA
 0002:00000508 00000000H .gfids$x                DATA
 0002:00000510 00000824H .rdata                  DATA
 0002:00000d34 00000218H .rdata$zzzdbg           DATA
 0002:00000f50 00000008H .rtc$IAA                DATA
 0002:00000f58 00000008H .rtc$IZZ                DATA
 0002:00000f60 00000008H .rtc$TAA                DATA
 0002:00000f68 00000008H .rtc$TZZ                DATA
 0002:00000f70 0000087cH .xdata                  DATA
 0002:000017f0 00000074H .edata                  DATA
 0002:00001864 000000dcH .idata$2                DATA
 0002:00001940 00000014H .idata$3                DATA
 0002:00001958 000004b8H .idata$4                DATA
 0002:00001e10 00000e1aH .idata$6                DATA
 0003:00000000 00001d94H .data                   DATA
 0003:00001da0 00000700H .bss                    DATA
 0004:00000000 00000a08H .pdata                  DATA

  Address         Publics by Value              Rva+Base               Lib:Object

 0000:00000000       __guard_fids_table         0000000000000000     <absolute>
 0000:00000000       ___safe_se_handler_count   0000000000000000     <absolute>
 0000:00000000       __guard_fids_count         0000000000000000     <absolute>
 0000:00000000       ___safe_se_handler_table   0000000000000000     <absolute>
 0000:00000100       __guard_flags              0000000000000100     <absolute>
 0000:00000000       __ImageBase                0000000180000000     <linker-defined>
 0001:00000000       Attitude_Control_System_of_Flying_Vehicle_initializer 0000000180001000 f   Attitude_Control_System_of_Flying_Vehicle_sfun.obj
 0001:00000010       Attitude_Control_System_of_Flying_Vehicle_terminator 0000000180001010 f   Attitude_Control_System_of_Flying_Vehicle_sfun.obj
 0001:00000020       load_Attitude_Control_System_of_Flying_Vehicle_optimization_info 0000000180001020 f   Attitude_Control_System_of_Flying_Vehicle_sfun.obj
 0001:000000d0       unload_Attitude_Control_System_of_Flying_Vehicle_optimization_info 00000001800010d0 f   Attitude_Control_System_of_Flying_Vehicle_sfun.obj
 0001:00000100       sf_Attitude_Control_System_of_Flying_Vehicle_method_dispatcher 0000000180001100 f   Attitude_Control_System_of_Flying_Vehicle_sfun.obj
 0001:00000150       sf_Attitude_Control_System_of_Flying_Vehicle_process_check_sum_call 0000000180001150 f   Attitude_Control_System_of_Flying_Vehicle_sfun.obj
 0001:00000640       sf_Attitude_Control_System_of_Flying_Vehicle_autoinheritance_info 0000000180001640 f   Attitude_Control_System_of_Flying_Vehicle_sfun.obj
 0001:00000820       sf_Attitude_Control_System_of_Flying_Vehicle_get_eml_resolved_functions_info 0000000180001820 f   Attitude_Control_System_of_Flying_Vehicle_sfun.obj
 0001:000009a0       sf_Attitude_Control_System_of_Flying_Vehicle_third_party_uses_info 00000001800019a0 f   Attitude_Control_System_of_Flying_Vehicle_sfun.obj
 0001:00000b70       sf_Attitude_Control_System_of_Flying_Vehicle_jit_fallback_info 0000000180001b70 f   Attitude_Control_System_of_Flying_Vehicle_sfun.obj
 0001:00000d40       sf_Attitude_Control_System_of_Flying_Vehicle_updateBuildInfo_args_info 0000000180001d40 f   Attitude_Control_System_of_Flying_Vehicle_sfun.obj
 0001:00000f10       Attitude_Control_System_of_Flying_Vehicle_debug_initialize 0000000180001f10 f   Attitude_Control_System_of_Flying_Vehicle_sfun.obj
 0001:00000f90       Attitude_Control_System_of_Flying_Vehicle_register_exported_symbols 0000000180001f90 f   Attitude_Control_System_of_Flying_Vehicle_sfun.obj
 0001:00000fa0       sf_c2_Attitude_Control_System_of_Flying_Vehicle_get_eml_resolved_functions_info 0000000180001fa0 f   c2_Attitude_Control_System_of_Flying_Vehicle.obj
 0001:00001020       sf_c2_Attitude_Control_System_of_Flying_Vehicle_get_check_sum 0000000180002020 f   c2_Attitude_Control_System_of_Flying_Vehicle.obj
 0001:000010f0       c2_Attitude_Control_System_of_Flying_Vehicle_method_dispatcher 00000001800020f0 f   c2_Attitude_Control_System_of_Flying_Vehicle.obj
 0001:000045f0       sf_c2_Attitude_Control_System_of_Flying_Vehicle_get_post_codegen_info 00000001800055f0 f   c2_Attitude_Control_System_of_Flying_Vehicle.obj
 0001:000046c0       sf_c2_Attitude_Control_System_of_Flying_Vehicle_get_autoinheritance_info 00000001800056c0 f   c2_Attitude_Control_System_of_Flying_Vehicle.obj
 0001:00005290       sf_c2_Attitude_Control_System_of_Flying_Vehicle_third_party_uses_info 0000000180006290 f   c2_Attitude_Control_System_of_Flying_Vehicle.obj
 0001:000052c0       sf_c2_Attitude_Control_System_of_Flying_Vehicle_jit_fallback_info 00000001800062c0 f   c2_Attitude_Control_System_of_Flying_Vehicle.obj
 0001:00005450       sf_c2_Attitude_Control_System_of_Flying_Vehicle_updateBuildInfo_args_info 0000000180006450 f   c2_Attitude_Control_System_of_Flying_Vehicle.obj
 0001:000061b0       mexFunction                00000001800071b0 f   Attitude_Control_System_of_Flying_Vehicle_sfun_registry.obj
 0001:00007580       _ssSetInputPortDirectFeedThroughFcn 0000000180008580 f   Attitude_Control_System_of_Flying_Vehicle_sfun_registry.obj
 0001:00007730       _ssGetInputPortSignalPtrsFcn 0000000180008730 f   Attitude_Control_System_of_Flying_Vehicle_sfun_registry.obj
 0001:00007b80       _ssGetInputPortSignalFcn   0000000180008b80 f   Attitude_Control_System_of_Flying_Vehicle_sfun_registry.obj
 0001:00007fd0       _ssSetInputPortReusableFcn 0000000180008fd0 f   Attitude_Control_System_of_Flying_Vehicle_sfun_registry.obj
 0001:000080b0       _ssSetOutputPortReusableFcn 00000001800090b0 f   Attitude_Control_System_of_Flying_Vehicle_sfun_registry.obj
 0001:00008190       _ssSetSymbolicDimsSupport  0000000180009190 f   Attitude_Control_System_of_Flying_Vehicle_sfun_registry.obj
 0001:00008200       _ssRegisterSymbolicDimsExpr 0000000180009200 f   Attitude_Control_System_of_Flying_Vehicle_sfun_registry.obj
 0001:00008280       _ssRegisterSymbolicDims    0000000180009280 f   Attitude_Control_System_of_Flying_Vehicle_sfun_registry.obj
 0001:00008320       _ssRegisterSymbolicDimsString 0000000180009320 f   Attitude_Control_System_of_Flying_Vehicle_sfun_registry.obj
 0001:000083a0       _ssRegisterSymbolicDimsIntValue 00000001800093a0 f   Attitude_Control_System_of_Flying_Vehicle_sfun_registry.obj
 0001:00008410       _ssRegisterSymbolicDimsPlus 0000000180009410 f   Attitude_Control_System_of_Flying_Vehicle_sfun_registry.obj
 0001:00008490       _ssRegisterSymbolicDimsMinus 0000000180009490 f   Attitude_Control_System_of_Flying_Vehicle_sfun_registry.obj
 0001:00008510       _ssRegisterSymbolicDimsMultiply 0000000180009510 f   Attitude_Control_System_of_Flying_Vehicle_sfun_registry.obj
 0001:00008590       _ssRegisterSymbolicDimsDivide 0000000180009590 f   Attitude_Control_System_of_Flying_Vehicle_sfun_registry.obj
 0001:00008610       _ssGetNumSymbolicDims      0000000180009610 f   Attitude_Control_System_of_Flying_Vehicle_sfun_registry.obj
 0001:00008680       _ssGetSymbolicDim          0000000180009680 f   Attitude_Control_System_of_Flying_Vehicle_sfun_registry.obj
 0001:00008700       _ssSetInputPortSymbolicDimsId 0000000180009700 f   Attitude_Control_System_of_Flying_Vehicle_sfun_registry.obj
 0001:00008770       _ssGetCompInputPortSymbolicDimsId 0000000180009770 f   Attitude_Control_System_of_Flying_Vehicle_sfun_registry.obj
 0001:000087e0       _ssSetCompInputPortSymbolicDimsId 00000001800097e0 f   Attitude_Control_System_of_Flying_Vehicle_sfun_registry.obj
 0001:00008850       _ssSetOutputPortSymbolicDimsId 0000000180009850 f   Attitude_Control_System_of_Flying_Vehicle_sfun_registry.obj
 0001:000088c0       _ssGetCompOutputPortSymbolicDimsId 00000001800098c0 f   Attitude_Control_System_of_Flying_Vehicle_sfun_registry.obj
 0001:00008930       _ssSetCompOutputPortSymbolicDimsId 0000000180009930 f   Attitude_Control_System_of_Flying_Vehicle_sfun_registry.obj
 0001:000089a0       _ssSetCompDWorkSymbolicDimsId 00000001800099a0 f   Attitude_Control_System_of_Flying_Vehicle_sfun_registry.obj
 0001:00008a10       ssGetIsZeroCrossControlDisabled 0000000180009a10 f   Attitude_Control_System_of_Flying_Vehicle_sfun_registry.obj
 0001:00008a80       ssSetIsInputPortUsedForContZcSignal 0000000180009a80 f   Attitude_Control_System_of_Flying_Vehicle_sfun_registry.obj
 0001:00008af0       ssSetZcSignalIsZcElementDisc 0000000180009af0 f   Attitude_Control_System_of_Flying_Vehicle_sfun_registry.obj
 0001:00008ba0       ssSetZcSignalName          0000000180009ba0 f   Attitude_Control_System_of_Flying_Vehicle_sfun_registry.obj
 0001:00008c10       ssSetZcSignalWidth         0000000180009c10 f   Attitude_Control_System_of_Flying_Vehicle_sfun_registry.obj
 0001:00008c80       ssSetZcSignalZcEventType   0000000180009c80 f   Attitude_Control_System_of_Flying_Vehicle_sfun_registry.obj
 0001:00008cf0       ssSetZcSignalType          0000000180009cf0 f   Attitude_Control_System_of_Flying_Vehicle_sfun_registry.obj
 0001:00008d60       ssSetZcSignalZcTol         0000000180009d60 f   Attitude_Control_System_of_Flying_Vehicle_sfun_registry.obj
 0001:00008dd0       ssSetZcSignalNeedsEventNotification 0000000180009dd0 f   Attitude_Control_System_of_Flying_Vehicle_sfun_registry.obj
 0001:00008e40       ssCreateAndAddZcSignalInfo 0000000180009e40 f   Attitude_Control_System_of_Flying_Vehicle_sfun_registry.obj
 0001:00008eb0       ssCloneAndAddZcSignalInfo  0000000180009eb0 f   Attitude_Control_System_of_Flying_Vehicle_sfun_registry.obj
 0001:00008f20       ssGetNumZcSignals          0000000180009f20 f   Attitude_Control_System_of_Flying_Vehicle_sfun_registry.obj
 0001:00008f90       ssGetZcSignalVector        0000000180009f90 f   Attitude_Control_System_of_Flying_Vehicle_sfun_registry.obj
 0001:00009000       ssGetZcSignalName          000000018000a000 f   Attitude_Control_System_of_Flying_Vehicle_sfun_registry.obj
 0001:00009070       ssGetZcSignalWidth         000000018000a070 f   Attitude_Control_System_of_Flying_Vehicle_sfun_registry.obj
 0001:000090e0       ssGetZcSignalZcEventType   000000018000a0e0 f   Attitude_Control_System_of_Flying_Vehicle_sfun_registry.obj
 0001:00009150       ssGetZcSignalZcEvents      000000018000a150 f   Attitude_Control_System_of_Flying_Vehicle_sfun_registry.obj
 0001:000091c0       ssGetZcSignalType          000000018000a1c0 f   Attitude_Control_System_of_Flying_Vehicle_sfun_registry.obj
 0001:00009230       ssGetZcSignalZcTol         000000018000a230 f   Attitude_Control_System_of_Flying_Vehicle_sfun_registry.obj
 0001:000092b0       ssGetZcSignalNeedsEventNotification 000000018000a2b0 f   Attitude_Control_System_of_Flying_Vehicle_sfun_registry.obj
 0001:00009320       ssGetZcSignalIsZcElementDisc 000000018000a320 f   Attitude_Control_System_of_Flying_Vehicle_sfun_registry.obj
 0001:000093c0       ssGetIsInputPortElementContinuous 000000018000a3c0 f   Attitude_Control_System_of_Flying_Vehicle_sfun_registry.obj
 0001:00009460       ssGetDTypeIdFromMxArray    000000018000a460 f   Attitude_Control_System_of_Flying_Vehicle_sfun_registry.obj
 0001:00009580       ssWriteRTWStr              000000018000a580 f   Attitude_Control_System_of_Flying_Vehicle_sfun_registry.obj
 0001:000095e0       ssWriteRTWNameValuePair    000000018000a5e0 f   Attitude_Control_System_of_Flying_Vehicle_sfun_registry.obj
 0001:00009ae0       ssWriteRTWParamSettings    000000018000aae0 f   Attitude_Control_System_of_Flying_Vehicle_sfun_registry.obj
 0001:0000a1d0       ssWriteRTWParameters       000000018000b1d0 f   Attitude_Control_System_of_Flying_Vehicle_sfun_registry.obj
 0001:0000a790       ssWriteRTWWorkVect         000000018000b790 f   Attitude_Control_System_of_Flying_Vehicle_sfun_registry.obj
 0001:0000ac80       ssWriteRTWMxVectParam      000000018000bc80 f   Attitude_Control_System_of_Flying_Vehicle_sfun_registry.obj
 0001:0000ad00       ssWriteRTWMx2dMatParam     000000018000bd00 f   Attitude_Control_System_of_Flying_Vehicle_sfun_registry.obj
 0001:0000ad90       _ssSetInputPortMatrixDimensions 000000018000bd90 f   Attitude_Control_System_of_Flying_Vehicle_sfun_registry.obj
 0001:0000aeb0       _ssSetOutputPortMatrixDimensions 000000018000beb0 f   Attitude_Control_System_of_Flying_Vehicle_sfun_registry.obj
 0001:0000afd0       _ssSetInputPortVectorDimension 000000018000bfd0 f   Attitude_Control_System_of_Flying_Vehicle_sfun_registry.obj
 0001:0000b080       _ssSetOutputPortVectorDimension 000000018000c080 f   Attitude_Control_System_of_Flying_Vehicle_sfun_registry.obj
 0001:0000b130       ssIsRunTimeParamTunable    000000018000c130 f   Attitude_Control_System_of_Flying_Vehicle_sfun_registry.obj
 0001:0000b1a0       ssGetSFuncBlockHandle      000000018000c1a0 f   Attitude_Control_System_of_Flying_Vehicle_sfun_registry.obj
 0001:0000b210       _ssGetCurrentInputPortWidth 000000018000c210 f   Attitude_Control_System_of_Flying_Vehicle_sfun_registry.obj
 0001:0000b330       _ssGetCurrentOutputPortWidth 000000018000c330 f   Attitude_Control_System_of_Flying_Vehicle_sfun_registry.obj
 0001:0000b450       _ssGetCallSystemNumFcnCallDestinations 000000018000c450 f   Attitude_Control_System_of_Flying_Vehicle_sfun_registry.obj
 0001:0000b4c0       ssGetParameterTuningCompliance 000000018000c4c0 f   Attitude_Control_System_of_Flying_Vehicle_sfun_registry.obj
 0001:0000b530       ssWarning                  000000018000c530 f   Attitude_Control_System_of_Flying_Vehicle_sfun_registry.obj
 0001:0000b620       _ssGetAbsTol               000000018000c620 f   Attitude_Control_System_of_Flying_Vehicle_sfun_registry.obj
 0001:0000b690       _ssSetStateAbsTol          000000018000c690 f   Attitude_Control_System_of_Flying_Vehicle_sfun_registry.obj
 0001:0000b770       sf_process_check_sum_call  000000018000c770 f   Attitude_Control_System_of_Flying_Vehicle_sfun_registry.obj
 0001:0000b7c0       sf_process_autoinheritance_call 000000018000c7c0 f   Attitude_Control_System_of_Flying_Vehicle_sfun_registry.obj
 0001:0000b9f0       sf_process_get_third_party_uses_info_call 000000018000c9f0 f   Attitude_Control_System_of_Flying_Vehicle_sfun_registry.obj
 0001:0000bc20       sf_process_get_jit_fallback_info_call 000000018000cc20 f   Attitude_Control_System_of_Flying_Vehicle_sfun_registry.obj
 0001:0000be50       sf_process_get_updateBuildInfo_args_info_call 000000018000ce50 f   Attitude_Control_System_of_Flying_Vehicle_sfun_registry.obj
 0001:0000c080       sf_process_get_eml_resolved_functions_info_call 000000018000d080 f   Attitude_Control_System_of_Flying_Vehicle_sfun_registry.obj
 0001:0000c280       sf_mex_unlock_call         000000018000d280 f   Attitude_Control_System_of_Flying_Vehicle_sfun_registry.obj
 0001:0000c520       sf_machine_global_initializer_called 000000018000d520 f   Attitude_Control_System_of_Flying_Vehicle_sfun_registry.obj
 0001:0000c550       sf_machine_global_method_dispatcher 000000018000d550 f   Attitude_Control_System_of_Flying_Vehicle_sfun_registry.obj
 0001:0000c5b0       sf_machine_global_terminator 000000018000d5b0 f   Attitude_Control_System_of_Flying_Vehicle_sfun_registry.obj
 0001:0000c600       sf_register_machine_exported_symbols 000000018000d600 f   Attitude_Control_System_of_Flying_Vehicle_sfun_registry.obj
 0001:0000c620       callCustomFcn              000000018000d620 f   Attitude_Control_System_of_Flying_Vehicle_sfun_registry.obj
 0001:0000c630       sf_machine_global_initializer 000000018000d630 f   Attitude_Control_System_of_Flying_Vehicle_sfun_registry.obj
 0001:0000c6b0       mdlGetSimState             000000018000d6b0 f   Attitude_Control_System_of_Flying_Vehicle_sfun_registry.obj
 0001:0000c6f0       mdlSetSimState             000000018000d6f0 f   Attitude_Control_System_of_Flying_Vehicle_sfun_registry.obj
 0001:0000cf60       ProcessMexSfunctionEveryCall 000000018000df60 f   Attitude_Control_System_of_Flying_Vehicle_sfun_registry.obj
 0001:0000dc60       __local_stdio_printf_options 000000018000ec60 f i Attitude_Control_System_of_Flying_Vehicle_sfun_registry.obj
 0001:0000dc70       _vsnprintf_l               000000018000ec70 f i Attitude_Control_System_of_Flying_Vehicle_sfun_registry.obj
 0001:0000dcf0       _vsprintf_l                000000018000ecf0 f i Attitude_Control_System_of_Flying_Vehicle_sfun_registry.obj
 0001:0000dd40       sprintf                    000000018000ed40 f i Attitude_Control_System_of_Flying_Vehicle_sfun_registry.obj
 0001:0000dd90       sf_load_rtw_optimization_info 000000018000ed90 f   sf_runtime:sf_runtime.dll
 0001:0000dd96       sf_debug_initialize_machine 000000018000ed96 f   sf_runtime:sf_runtime.dll
 0001:0000dd9c       sf_debug_set_machine_event_thresholds 000000018000ed9c f   sf_runtime:sf_runtime.dll
 0001:0000dda2       sf_debug_set_machine_data_thresholds 000000018000eda2 f   sf_runtime:sf_runtime.dll
 0001:0000dda8       sf_init_ChartRunTimeInfo   000000018000eda8 f   sf_runtime:sf_runtime.dll
 0001:0000ddae       sf_free_ChartRunTimeInfo   000000018000edae f   sf_runtime:sf_runtime.dll
 0001:0000ddb4       sf_get_chart_instance_ptr  000000018000edb4 f   sf_runtime:sf_runtime.dll
 0001:0000ddba       sf_rtw_info_uint_prop      000000018000edba f   sf_runtime:sf_runtime.dll
 0001:0000ddc0       sf_update_buildInfo        000000018000edc0 f   sf_runtime:sf_runtime.dll
 0001:0000ddc6       sf_is_chart_inlinable      000000018000edc6 f   sf_runtime:sf_runtime.dll
 0001:0000ddcc       sf_mark_chart_reusable_outputs 000000018000edcc f   sf_runtime:sf_runtime.dll
 0001:0000ddd2       sf_mark_chart_expressionable_inputs 000000018000edd2 f   sf_runtime:sf_runtime.dll
 0001:0000ddd8       sim_mode_is_rtw_gen        000000018000edd8 f   sf_runtime:sf_runtime.dll
 0001:0000ddde       sim_mode_is_external       000000018000edde f   sf_runtime:sf_runtime.dll
 0001:0000dde4       sim_mode_is_modelref_sim   000000018000ede4 f   sf_runtime:sf_runtime.dll
 0001:0000ddea       sf_clear_rtw_identifier    000000018000edea f   sf_runtime:sf_runtime.dll
 0001:0000ddf0       sf_set_rtw_dwork_info      000000018000edf0 f   sf_runtime:sf_runtime.dll
 0001:0000ddf6       sf_get_time                000000018000edf6 f   sf_runtime:sf_runtime.dll
 0001:0000ddfc       sf_is_first_init_cond      000000018000edfc f   sf_runtime:sf_runtime.dll
 0001:0000de02       sf_set_chart_accesses_machine_info 000000018000ee02 f   sf_runtime:sf_runtime.dll
 0001:0000de08       sf_register_codegen_names_for_scoped_functions_defined_by_chart 000000018000ee08 f   sf_runtime:sf_runtime.dll
 0001:0000de0e       sf_mex_error_message       000000018000ee0e f   sf_runtime:sf_runtime.dll
 0001:0000de14       sf_mex_create              000000018000ee14 f   sf_runtime:sf_runtime.dll
 0001:0000de1a       sf_mex_createcellmatrix    000000018000ee1a f   sf_runtime:sf_runtime.dll
 0001:0000de20       sf_mex_setcell             000000018000ee20 f   sf_runtime:sf_runtime.dll
 0001:0000de26       sf_mex_getcell             000000018000ee26 f   sf_runtime:sf_runtime.dll
 0001:0000de2c       sf_mex_assign              000000018000ee2c f   sf_runtime:sf_runtime.dll
 0001:0000de32       sf_mex_dup                 000000018000ee32 f   sf_runtime:sf_runtime.dll
 0001:0000de38       sf_mex_destroy             000000018000ee38 f   sf_runtime:sf_runtime.dll
 0001:0000de3e       sf_mex_import              000000018000ee3e f   sf_runtime:sf_runtime.dll
 0001:0000de44       sf_mex_decode_encoded_mx_struct_array 000000018000ee44 f   sf_runtime:sf_runtime.dll
 0001:0000de4a       ssGetInputPortSignal_wrapper 000000018000ee4a f   sf_runtime:sf_runtime.dll
 0001:0000de50       ssGetOutputPortSignal_wrapper 000000018000ee50 f   sf_runtime:sf_runtime.dll
 0001:0000de56       sf_debug_initialize_chart  000000018000ee56 f   sf_runtime:sf_runtime.dll
 0001:0000de5c       sf_debug_call              000000018000ee5c f   sf_runtime:sf_runtime.dll
 0001:0000de62       eml_debug_line_call        000000018000ee62 f   sf_runtime:sf_runtime.dll
 0001:0000de68       cv_eml_eval                000000018000ee68 f   sf_runtime:sf_runtime.dll
 0001:0000de6e       cv_eml_init_script         000000018000ee6e f   sf_runtime:sf_runtime.dll
 0001:0000de74       cv_eml_init_fcn            000000018000ee74 f   sf_runtime:sf_runtime.dll
 0001:0000de7a       sf_debug_reset_current_state_configuration 000000018000ee7a f   sf_runtime:sf_runtime.dll
 0001:0000de80       sf_debug_check_for_state_inconsistency 000000018000ee80 f   sf_runtime:sf_runtime.dll
 0001:0000de86       sf_debug_set_chart_data_props 000000018000ee86 f   sf_runtime:sf_runtime.dll
 0001:0000de8c       sf_debug_set_chart_data_compiled_props 000000018000ee8c f   sf_runtime:sf_runtime.dll
 0001:0000de92       sf_debug_symbol_scope_push 000000018000ee92 f   sf_runtime:sf_runtime.dll
 0001:0000de98       sf_debug_symbol_scope_push_eml 000000018000ee98 f   sf_runtime:sf_runtime.dll
 0001:0000de9e       sf_debug_symbol_scope_pop  000000018000ee9e f   sf_runtime:sf_runtime.dll
 0001:0000dea4       sf_debug_symbol_scope_add_eml 000000018000eea4 f   sf_runtime:sf_runtime.dll
 0001:0000deaa       sf_debug_symbol_scope_add_eml_importable 000000018000eeaa f   sf_runtime:sf_runtime.dll
 0001:0000deb0       sf_debug_set_instance_data_value_ptr 000000018000eeb0 f   sf_runtime:sf_runtime.dll
 0001:0000deb6       sf_debug_set_chart_disable_implicit_casting 000000018000eeb6 f   sf_runtime:sf_runtime.dll
 0001:0000debc       sf_debug_set_chart_event_thresholds 000000018000eebc f   sf_runtime:sf_runtime.dll
 0001:0000dec2       sf_debug_set_chart_state_info 000000018000eec2 f   sf_runtime:sf_runtime.dll
 0001:0000dec8       sf_debug_set_chart_decomposition 000000018000eec8 f   sf_runtime:sf_runtime.dll
 0001:0000dece       sf_debug_set_chart_substate_count 000000018000eece f   sf_runtime:sf_runtime.dll
 0001:0000ded4       sf_debug_data_range_wrapper 000000018000eed4 f   sf_runtime:sf_runtime.dll
 0001:0000deda       sf_debug_cv_init_trans     000000018000eeda f   sf_runtime:sf_runtime.dll
 0001:0000dee0       sf_debug_cv_init_chart     000000018000eee0 f   sf_runtime:sf_runtime.dll
 0001:0000dee6       sf_debug_cv_init_state     000000018000eee6 f   sf_runtime:sf_runtime.dll
 0001:0000deec       sf_get_ChartInfoStruct_CodeGen 000000018000eeec f   sf_runtime:sf_runtime.dll
 0001:0000def2       sf_get_isEnhancedMooreMachine 000000018000eef2 f   sf_runtime:sf_runtime.dll
 0001:0000def8       sf_set_compiledInfo        000000018000eef8 f   sf_runtime:sf_runtime.dll
 0001:0000defe       callMdlMethodAndReportError 000000018000eefe f   sf_runtime:sf_runtime.dll
 0001:0000df04       call_sf_machine_global_method_dispatcher 000000018000ef04 f   sf_runtime:sf_runtime.dll
 0001:0000df0a       sf_mex_error_direct_call   000000018000ef0a f   sf_runtime:sf_runtime.dll
 0001:0000df10       sf_clear_error_manager_info 000000018000ef10 f   sf_runtime:sf_runtime.dll
 0001:0000df16       sf_debug_create_debug_instance_struct 000000018000ef16 f   sf_runtime:sf_runtime.dll
 0001:0000df1c       sf_debug_terminate         000000018000ef1c f   sf_runtime:sf_runtime.dll
 0001:0000df22       sf_debug_api               000000018000ef22 f   sf_runtime:sf_runtime.dll
 0001:0000df28       mxIsChar                   000000018000ef28 f   libmx:libmx.dll
 0001:0000df2e       mxGetPr                    000000018000ef2e f   libmx:libmx.dll
 0001:0000df34       mxGetScalar                000000018000ef34 f   libmx:libmx.dll
 0001:0000df3a       mxDestroyArray             000000018000ef3a f   libmx:libmx.dll
 0001:0000df40       mxCreateDoubleMatrix_730   000000018000ef40 f   libmx:libmx.dll
 0001:0000df46       mxGetString_730            000000018000ef46 f   libmx:libmx.dll
 0001:0000df4c       mxDuplicateArray           000000018000ef4c f   libmx:libmx.dll
 0001:0000df52       mxSetField_730             000000018000ef52 f   libmx:libmx.dll
 0001:0000df58       mxCreateDoubleScalar       000000018000ef58 f   libmx:libmx.dll
 0001:0000df5e       mxCreateString             000000018000ef5e f   libmx:libmx.dll
 0001:0000df64       mxCreateCellMatrix_730     000000018000ef64 f   libmx:libmx.dll
 0001:0000df6a       mxCreateCellArray_730      000000018000ef6a f   libmx:libmx.dll
 0001:0000df70       mxCreateStructMatrix_730   000000018000ef70 f   libmx:libmx.dll
 0001:0000df76       mxCreateStructArray_730    000000018000ef76 f   libmx:libmx.dll
 0001:0000df7c       mxCalloc                   000000018000ef7c f   libmx:libmx.dll
 0001:0000df82       mxGetM                     000000018000ef82 f   libmx:libmx.dll
 0001:0000df88       mxGetClassID               000000018000ef88 f   libmx:libmx.dll
 0001:0000df8e       mxIsNumeric                000000018000ef8e f   libmx:libmx.dll
 0001:0000df94       mxIsComplex                000000018000ef94 f   libmx:libmx.dll
 0001:0000df9a       mxGetN                     000000018000ef9a f   libmx:libmx.dll
 0001:0000dfa0       mexMakeArrayPersistent     000000018000efa0 f   libmex:libmex.dll
 0001:0000dfa6       mexErrMsgTxt               000000018000efa6 f   libmex:libmex.dll
 0001:0000dfac       mexWarnMsgTxt              000000018000efac f   libmex:libmex.dll
 0001:0000dfb2       mexCallMATLABWithObject    000000018000efb2 f   libmex:libmex.dll
 0001:0000dfb8       mexLock                    000000018000efb8 f   libmex:libmex.dll
 0001:0000dfbe       mexUnlock                  000000018000efbe f   libmex:libmex.dll
 0001:0000dfc4       mexIsLocked                000000018000efc4 f   libmex:libmex.dll
 0001:0000dfca       utMalloc                   000000018000efca f   libut:libut.dll
 0001:0000dfd0       utFree                     000000018000efd0 f   libut:libut.dll
 0001:0000dfd6       muDoubleScalarCos          000000018000efd6 f   libmwmathutil:libmwmathutil.dll
 0001:0000dfdc       muDoubleScalarSin          000000018000efdc f   libmwmathutil:libmwmathutil.dll
 0001:0000dfe2       muDoubleScalarTan          000000018000efe2 f   libmwmathutil:libmwmathutil.dll
 0001:0000dfe8       __raise_securityfailure    000000018000efe8 f   MSVCRT:gs_report.obj
 0001:0000e01c       __report_gsfailure         000000018000f01c f   MSVCRT:gs_report.obj
 0001:0000e0f0       __report_rangecheckfailure 000000018000f0f0 f   MSVCRT:gs_report.obj
 0001:0000e104       __report_securityfailure   000000018000f104 f   MSVCRT:gs_report.obj
 0001:0000e1a0       __report_securityfailureEx 000000018000f1a0 f   MSVCRT:gs_report.obj
 0001:0000e394       __GSHandlerCheck           000000018000f394 f   MSVCRT:_gshandler_.obj
 0001:0000e3b4       __GSHandlerCheckCommon     000000018000f3b4 f   MSVCRT:_gshandler_.obj
 0001:0000e420       __security_check_cookie    000000018000f420 f   MSVCRT:_amdsecgs_.obj
 0001:0000e7a0       _CRT_INIT                  000000018000f7a0 f   MSVCRT:dll_dllmain.obj
 0001:0000e7a8       _DllMainCRTStartup         000000018000f7a8 f   MSVCRT:dll_dllmain.obj
 0001:0000e7e8       ??$__crt_fast_decode_pointer@PEAP6AXXZ@@YAPEAP6AXXZQEAP6AXXZ@Z 000000018000f7e8 f i MSVCRT:utility.obj
 0001:0000e800       ??$__crt_fast_encode_pointer@PEAP6AXXZ@@YAPEAP6AXXZQEAP6AXXZ@Z 000000018000f800 f i MSVCRT:utility.obj
 0001:0000e820       ?__crt_rotate_pointer_value@@YA_K_KH@Z 000000018000f820 f i MSVCRT:utility.obj
 0001:0000e8a8       NtCurrentTeb               000000018000f8a8 f i MSVCRT:utility.obj
 0001:0000e8b4       __scrt_acquire_startup_lock 000000018000f8b4 f   MSVCRT:utility.obj
 0001:0000e8f0       __scrt_dllmain_after_initialize_c 000000018000f8f0 f   MSVCRT:utility.obj
 0001:0000e910       __scrt_dllmain_before_initialize_c 000000018000f910 f   MSVCRT:utility.obj
 0001:0000e928       __scrt_dllmain_crt_thread_attach 000000018000f928 f   MSVCRT:utility.obj
 0001:0000e950       __scrt_dllmain_crt_thread_detach 000000018000f950 f   MSVCRT:utility.obj
 0001:0000e968       __scrt_dllmain_exception_filter 000000018000f968 f   MSVCRT:utility.obj
 0001:0000e9cc       __scrt_dllmain_uninitialize_c 000000018000f9cc f   MSVCRT:utility.obj
 0001:0000e9fc       __scrt_dllmain_uninitialize_critical 000000018000f9fc f   MSVCRT:utility.obj
 0001:0000ea10       __scrt_initialize_crt      000000018000fa10 f   MSVCRT:utility.obj
 0001:0000ea5c       __scrt_initialize_onexit_tables 000000018000fa5c f   MSVCRT:utility.obj
 0001:0000eb28       __scrt_is_nonwritable_in_current_image 000000018000fb28 f   MSVCRT:utility.obj
 0001:0000ebc4       __scrt_release_startup_lock 000000018000fbc4 f   MSVCRT:utility.obj
 0001:0000ebe8       __scrt_uninitialize_crt    000000018000fbe8 f   MSVCRT:utility.obj
 0001:0000ec14       _onexit                    000000018000fc14 f   MSVCRT:utility.obj
 0001:0000ec64       at_quick_exit              000000018000fc64 f   MSVCRT:utility.obj
 0001:0000ec9c       atexit                     000000018000fc9c f   MSVCRT:utility.obj
 0001:0000ecb4       __security_init_cookie     000000018000fcb4 f   MSVCRT:gs_support.obj
 0001:0000ed60       DllMain                    000000018000fd60 f   MSVCRT:dll_dllmain_stub.obj
 0001:0000ed84       ?__scrt_initialize_type_info@@YAXXZ 000000018000fd84 f   MSVCRT:tncleanup.obj
 0001:0000ed94       ?__scrt_uninitialize_type_info@@YAXXZ 000000018000fd94 f   MSVCRT:tncleanup.obj
 0001:0000eda0       __local_stdio_scanf_options 000000018000fda0 f i MSVCRT:default_local_stdio_options.obj
 0001:0000eda8       __scrt_initialize_default_local_stdio_options 000000018000fda8 f   MSVCRT:default_local_stdio_options.obj
 0001:0000edc4       __scrt_get_dyn_tls_init_callback 000000018000fdc4 f   MSVCRT:dyn_tls_init.obj
 0001:0000edcc       __crt_debugger_hook        000000018000fdcc f   MSVCRT:utility_desktop.obj
 0001:0000edd4       __scrt_fastfail            000000018000fdd4 f   MSVCRT:utility_desktop.obj
 0001:0000ef1c       __scrt_get_show_window_mode 000000018000ff1c f   MSVCRT:utility_desktop.obj
 0001:0000ef5c       __scrt_initialize_winrt    000000018000ff5c f   MSVCRT:utility_desktop.obj
 0001:0000ef60       __scrt_is_managed_app      000000018000ff60 f   MSVCRT:utility_desktop.obj
 0001:0000efb4       __scrt_set_unhandled_exception_filter 000000018000ffb4 f   MSVCRT:utility_desktop.obj
 0001:0000efc4       __scrt_unhandled_exception_filter 000000018000ffc4 f   MSVCRT:utility_desktop.obj
 0001:0000effc       _RTC_Initialize            000000018000fffc f   MSVCRT:_initsect_.obj
 0001:0000f048       _RTC_Terminate             0000000180010048 f   MSVCRT:_initsect_.obj
 0001:0000f094       _guard_check_icall         0000000180010094 f i MSVCRT:checkcfg.obj
 0001:0000f09c       __isa_available_init       000000018001009c f   MSVCRT:_cpu_disp_.obj
 0001:0000f260       __scrt_is_ucrt_dll_in_use  0000000180010260 f   MSVCRT:ucrt_detection.obj
 0001:0000f26c       _guard_check_icall_nop     000000018001026c f i MSVCRT:guard_support.obj
 0001:0000f270       _guard_icall_checks_enforced 0000000180010270 f i MSVCRT:guard_support.obj
 0001:0000f290       RtlCaptureContext          0000000180010290 f   kernel32:KERNEL32.dll
 0001:0000f296       RtlLookupFunctionEntry     0000000180010296 f   kernel32:KERNEL32.dll
 0001:0000f29c       RtlVirtualUnwind           000000018001029c f   kernel32:KERNEL32.dll
 0001:0000f2a2       UnhandledExceptionFilter   00000001800102a2 f   kernel32:KERNEL32.dll
 0001:0000f2a8       SetUnhandledExceptionFilter 00000001800102a8 f   kernel32:KERNEL32.dll
 0001:0000f2ae       GetCurrentProcess          00000001800102ae f   kernel32:KERNEL32.dll
 0001:0000f2b4       TerminateProcess           00000001800102b4 f   kernel32:KERNEL32.dll
 0001:0000f2ba       IsProcessorFeaturePresent  00000001800102ba f   kernel32:KERNEL32.dll
 0001:0000f2c0       QueryPerformanceCounter    00000001800102c0 f   kernel32:KERNEL32.dll
 0001:0000f2c6       GetCurrentProcessId        00000001800102c6 f   kernel32:KERNEL32.dll
 0001:0000f2cc       GetCurrentThreadId         00000001800102cc f   kernel32:KERNEL32.dll
 0001:0000f2d2       GetSystemTimeAsFileTime    00000001800102d2 f   kernel32:KERNEL32.dll
 0001:0000f2d8       DisableThreadLibraryCalls  00000001800102d8 f   kernel32:KERNEL32.dll
 0001:0000f2de       InitializeSListHead        00000001800102de f   kernel32:KERNEL32.dll
 0001:0000f2e4       IsDebuggerPresent          00000001800102e4 f   kernel32:KERNEL32.dll
 0001:0000f2ea       GetStartupInfoW            00000001800102ea f   kernel32:KERNEL32.dll
 0001:0000f2f0       GetModuleHandleW           00000001800102f0 f   kernel32:KERNEL32.dll
 0001:0000f2f6       memset                     00000001800102f6 f   vcruntime:VCRUNTIME140.dll
 0001:0000f2fc       memcpy                     00000001800102fc f   vcruntime:VCRUNTIME140.dll
 0001:0000f302       __telemetry_main_invoke_trigger 0000000180010302 f   vcruntime:VCRUNTIME140.dll
 0001:0000f308       __telemetry_main_return_trigger 0000000180010308 f   vcruntime:VCRUNTIME140.dll
 0001:0000f30e       __C_specific_handler       000000018001030e f   vcruntime:VCRUNTIME140.dll
 0001:0000f314       __std_type_info_destroy_list 0000000180010314 f   vcruntime:VCRUNTIME140.dll
 0001:0000f31a       strcmp                     000000018001031a f   ucrt:api-ms-win-crt-string-l1-1-0.dll
 0001:0000f320       free                       0000000180010320 f   ucrt:api-ms-win-crt-heap-l1-1-0.dll
 0001:0000f326       malloc                     0000000180010326 f   ucrt:api-ms-win-crt-heap-l1-1-0.dll
 0001:0000f32c       __stdio_common_vsprintf    000000018001032c f   ucrt:api-ms-win-crt-stdio-l1-1-0.dll
 0001:0000f332       strcat                     0000000180010332 f   ucrt:api-ms-win-crt-string-l1-1-0.dll
 0001:0000f338       strlen                     0000000180010338 f   ucrt:api-ms-win-crt-string-l1-1-0.dll
 0001:0000f33e       _initterm                  000000018001033e f   ucrt:api-ms-win-crt-runtime-l1-1-0.dll
 0001:0000f344       _initterm_e                0000000180010344 f   ucrt:api-ms-win-crt-runtime-l1-1-0.dll
 0001:0000f34a       _seh_filter_dll            000000018001034a f   ucrt:api-ms-win-crt-runtime-l1-1-0.dll
 0001:0000f350       _initialize_narrow_environment 0000000180010350 f   ucrt:api-ms-win-crt-runtime-l1-1-0.dll
 0001:0000f356       _initialize_onexit_table   0000000180010356 f   ucrt:api-ms-win-crt-runtime-l1-1-0.dll
 0001:0000f35c       _register_onexit_function  000000018001035c f   ucrt:api-ms-win-crt-runtime-l1-1-0.dll
 0001:0000f362       _execute_onexit_table      0000000180010362 f   ucrt:api-ms-win-crt-runtime-l1-1-0.dll
 0001:0000f368       _crt_atexit                0000000180010368 f   ucrt:api-ms-win-crt-runtime-l1-1-0.dll
 0001:0000f36e       _crt_at_quick_exit         000000018001036e f   ucrt:api-ms-win-crt-runtime-l1-1-0.dll
 0001:0000f374       _cexit                     0000000180010374 f   ucrt:api-ms-win-crt-runtime-l1-1-0.dll
 0001:0000f37a       terminate                  000000018001037a f   ucrt:api-ms-win-crt-runtime-l1-1-0.dll
 0001:0000f380       __acrt_initialize          0000000180010380 f   MSVCRT:ucrt_stubs.obj
 0001:0000f380       __vcrt_initialize          0000000180010380 f   MSVCRT:ucrt_stubs.obj
 0001:0000f380       __scrt_stub_for_acrt_initialize 0000000180010380 f   MSVCRT:ucrt_stubs.obj
 0001:0000f384       __acrt_thread_attach       0000000180010384 f   MSVCRT:ucrt_stubs.obj
 0001:0000f384       __vcrt_thread_attach       0000000180010384 f   MSVCRT:ucrt_stubs.obj
 0001:0000f384       __scrt_stub_for_acrt_thread_attach 0000000180010384 f   MSVCRT:ucrt_stubs.obj
 0001:0000f388       __vcrt_thread_detach       0000000180010388 f   MSVCRT:ucrt_stubs.obj
 0001:0000f388       __scrt_stub_for_acrt_thread_detach 0000000180010388 f   MSVCRT:ucrt_stubs.obj
 0001:0000f388       __acrt_thread_detach       0000000180010388 f   MSVCRT:ucrt_stubs.obj
 0001:0000f38c       __vcrt_uninitialize        000000018001038c f   MSVCRT:ucrt_stubs.obj
 0001:0000f38c       __scrt_stub_for_acrt_uninitialize 000000018001038c f   MSVCRT:ucrt_stubs.obj
 0001:0000f38c       __acrt_uninitialize        000000018001038c f   MSVCRT:ucrt_stubs.obj
 0001:0000f390       __vcrt_uninitialize_critical 0000000180010390 f   MSVCRT:ucrt_stubs.obj
 0001:0000f390       __scrt_stub_for_acrt_uninitialize_critical 0000000180010390 f   MSVCRT:ucrt_stubs.obj
 0001:0000f390       __acrt_uninitialize_critical 0000000180010390 f   MSVCRT:ucrt_stubs.obj
 0001:0000f394       __scrt_stub_for_is_c_termination_complete 0000000180010394 f   MSVCRT:ucrt_stubs.obj
 0001:0000f394       _is_c_termination_complete 0000000180010394 f   MSVCRT:ucrt_stubs.obj
 0001:0000f3b0       _guard_dispatch_icall_nop  00000001800103b0 f   MSVCRT:_guard_dispatch_.obj
 0002:00000000       __imp_GetModuleHandleW     0000000180011000     kernel32:KERNEL32.dll
 0002:00000008       __imp_RtlCaptureContext    0000000180011008     kernel32:KERNEL32.dll
 0002:00000010       __imp_IsProcessorFeaturePresent 0000000180011010     kernel32:KERNEL32.dll
 0002:00000018       __imp_RtlLookupFunctionEntry 0000000180011018     kernel32:KERNEL32.dll
 0002:00000020       __imp_QueryPerformanceCounter 0000000180011020     kernel32:KERNEL32.dll
 0002:00000028       __imp_GetCurrentProcessId  0000000180011028     kernel32:KERNEL32.dll
 0002:00000030       __imp_GetCurrentThreadId   0000000180011030     kernel32:KERNEL32.dll
 0002:00000038       __imp_GetSystemTimeAsFileTime 0000000180011038     kernel32:KERNEL32.dll
 0002:00000040       __imp_DisableThreadLibraryCalls 0000000180011040     kernel32:KERNEL32.dll
 0002:00000048       __imp_InitializeSListHead  0000000180011048     kernel32:KERNEL32.dll
 0002:00000050       __imp_IsDebuggerPresent    0000000180011050     kernel32:KERNEL32.dll
 0002:00000058       __imp_GetStartupInfoW      0000000180011058     kernel32:KERNEL32.dll
 0002:00000060       __imp_GetCurrentProcess    0000000180011060     kernel32:KERNEL32.dll
 0002:00000068       __imp_SetUnhandledExceptionFilter 0000000180011068     kernel32:KERNEL32.dll
 0002:00000070       __imp_RtlVirtualUnwind     0000000180011070     kernel32:KERNEL32.dll
 0002:00000078       __imp_UnhandledExceptionFilter 0000000180011078     kernel32:KERNEL32.dll
 0002:00000080       __imp_TerminateProcess     0000000180011080     kernel32:KERNEL32.dll
 0002:00000088       \177KERNEL32_NULL_THUNK_DATA 0000000180011088     kernel32:KERNEL32.dll
 0002:00000090       __imp_memcpy               0000000180011090     vcruntime:VCRUNTIME140.dll
 0002:00000098       __imp___telemetry_main_invoke_trigger 0000000180011098     vcruntime:VCRUNTIME140.dll
 0002:000000a0       __imp___telemetry_main_return_trigger 00000001800110a0     vcruntime:VCRUNTIME140.dll
 0002:000000a8       __imp___std_type_info_destroy_list 00000001800110a8     vcruntime:VCRUNTIME140.dll
 0002:000000b0       __imp___C_specific_handler 00000001800110b0     vcruntime:VCRUNTIME140.dll
 0002:000000b8       __imp_memset               00000001800110b8     vcruntime:VCRUNTIME140.dll
 0002:000000c0       \177VCRUNTIME140_NULL_THUNK_DATA 00000001800110c0     vcruntime:VCRUNTIME140.dll
 0002:000000c8       __imp_malloc               00000001800110c8     ucrt:api-ms-win-crt-heap-l1-1-0.dll
 0002:000000d0       __imp_free                 00000001800110d0     ucrt:api-ms-win-crt-heap-l1-1-0.dll
 0002:000000d8       \177api-ms-win-crt-heap-l1-1-0_NULL_THUNK_DATA 00000001800110d8     ucrt:api-ms-win-crt-heap-l1-1-0.dll
 0002:000000e0       __imp__initterm_e          00000001800110e0     ucrt:api-ms-win-crt-runtime-l1-1-0.dll
 0002:000000e8       __imp__initialize_narrow_environment 00000001800110e8     ucrt:api-ms-win-crt-runtime-l1-1-0.dll
 0002:000000f0       __imp__initialize_onexit_table 00000001800110f0     ucrt:api-ms-win-crt-runtime-l1-1-0.dll
 0002:000000f8       __imp__register_onexit_function 00000001800110f8     ucrt:api-ms-win-crt-runtime-l1-1-0.dll
 0002:00000100       __imp__execute_onexit_table 0000000180011100     ucrt:api-ms-win-crt-runtime-l1-1-0.dll
 0002:00000108       __imp__crt_atexit          0000000180011108     ucrt:api-ms-win-crt-runtime-l1-1-0.dll
 0002:00000110       __imp__crt_at_quick_exit   0000000180011110     ucrt:api-ms-win-crt-runtime-l1-1-0.dll
 0002:00000118       __imp__cexit               0000000180011118     ucrt:api-ms-win-crt-runtime-l1-1-0.dll
 0002:00000120       __imp_terminate            0000000180011120     ucrt:api-ms-win-crt-runtime-l1-1-0.dll
 0002:00000128       __imp__seh_filter_dll      0000000180011128     ucrt:api-ms-win-crt-runtime-l1-1-0.dll
 0002:00000130       __imp__initterm            0000000180011130     ucrt:api-ms-win-crt-runtime-l1-1-0.dll
 0002:00000138       \177api-ms-win-crt-runtime-l1-1-0_NULL_THUNK_DATA 0000000180011138     ucrt:api-ms-win-crt-runtime-l1-1-0.dll
 0002:00000140       __imp___stdio_common_vsprintf 0000000180011140     ucrt:api-ms-win-crt-stdio-l1-1-0.dll
 0002:00000148       \177api-ms-win-crt-stdio-l1-1-0_NULL_THUNK_DATA 0000000180011148     ucrt:api-ms-win-crt-stdio-l1-1-0.dll
 0002:00000150       __imp_strlen               0000000180011150     ucrt:api-ms-win-crt-string-l1-1-0.dll
 0002:00000158       __imp_strcat               0000000180011158     ucrt:api-ms-win-crt-string-l1-1-0.dll
 0002:00000160       __imp_strcmp               0000000180011160     ucrt:api-ms-win-crt-string-l1-1-0.dll
 0002:00000168       \177api-ms-win-crt-string-l1-1-0_NULL_THUNK_DATA 0000000180011168     ucrt:api-ms-win-crt-string-l1-1-0.dll
 0002:00000170       __imp_mexErrMsgTxt         0000000180011170     libmex:libmex.dll
 0002:00000178       __imp_mexWarnMsgTxt        0000000180011178     libmex:libmex.dll
 0002:00000180       __imp_mexCallMATLABWithObject 0000000180011180     libmex:libmex.dll
 0002:00000188       __imp_mexMakeArrayPersistent 0000000180011188     libmex:libmex.dll
 0002:00000190       __imp_mexIsLocked          0000000180011190     libmex:libmex.dll
 0002:00000198       __imp_mexUnlock            0000000180011198     libmex:libmex.dll
 0002:000001a0       __imp_mexLock              00000001800111a0     libmex:libmex.dll
 0002:000001a8       \177libmex_NULL_THUNK_DATA 00000001800111a8     libmex:libmex.dll
 0002:000001b0       __imp_muDoubleScalarTan    00000001800111b0     libmwmathutil:libmwmathutil.dll
 0002:000001b8       __imp_muDoubleScalarCos    00000001800111b8     libmwmathutil:libmwmathutil.dll
 0002:000001c0       __imp_muDoubleScalarSin    00000001800111c0     libmwmathutil:libmwmathutil.dll
 0002:000001c8       \177libmwmathutil_NULL_THUNK_DATA 00000001800111c8     libmwmathutil:libmwmathutil.dll
 0002:000001d0       __imp_mxGetN               00000001800111d0     libmx:libmx.dll
 0002:000001d8       __imp_mxIsComplex          00000001800111d8     libmx:libmx.dll
 0002:000001e0       __imp_mxIsNumeric          00000001800111e0     libmx:libmx.dll
 0002:000001e8       __imp_mxGetClassID         00000001800111e8     libmx:libmx.dll
 0002:000001f0       __imp_mxGetM               00000001800111f0     libmx:libmx.dll
 0002:000001f8       __imp_mxCalloc             00000001800111f8     libmx:libmx.dll
 0002:00000200       __imp_mxCreateStructArray_730 0000000180011200     libmx:libmx.dll
 0002:00000208       __imp_mxCreateStructMatrix_730 0000000180011208     libmx:libmx.dll
 0002:00000210       __imp_mxCreateCellArray_730 0000000180011210     libmx:libmx.dll
 0002:00000218       __imp_mxCreateCellMatrix_730 0000000180011218     libmx:libmx.dll
 0002:00000220       __imp_mxIsChar             0000000180011220     libmx:libmx.dll
 0002:00000228       __imp_mxGetPr              0000000180011228     libmx:libmx.dll
 0002:00000230       __imp_mxGetScalar          0000000180011230     libmx:libmx.dll
 0002:00000238       __imp_mxDestroyArray       0000000180011238     libmx:libmx.dll
 0002:00000240       __imp_mxCreateDoubleMatrix_730 0000000180011240     libmx:libmx.dll
 0002:00000248       __imp_mxGetString_730      0000000180011248     libmx:libmx.dll
 0002:00000250       __imp_mxDuplicateArray     0000000180011250     libmx:libmx.dll
 0002:00000258       __imp_mxSetField_730       0000000180011258     libmx:libmx.dll
 0002:00000260       __imp_mxCreateDoubleScalar 0000000180011260     libmx:libmx.dll
 0002:00000268       __imp_mxCreateString       0000000180011268     libmx:libmx.dll
 0002:00000270       \177libmx_NULL_THUNK_DATA  0000000180011270     libmx:libmx.dll
 0002:00000278       __imp_utMalloc             0000000180011278     libut:libut.dll
 0002:00000280       __imp_utFree               0000000180011280     libut:libut.dll
 0002:00000288       \177libut_NULL_THUNK_DATA  0000000180011288     libut:libut.dll
 0002:00000290       __imp_sf_debug_create_debug_instance_struct 0000000180011290     sf_runtime:sf_runtime.dll
 0002:00000298       __imp_sf_clear_error_manager_info 0000000180011298     sf_runtime:sf_runtime.dll
 0002:000002a0       __imp_sf_mex_error_direct_call 00000001800112a0     sf_runtime:sf_runtime.dll
 0002:000002a8       __imp_call_sf_machine_global_method_dispatcher 00000001800112a8     sf_runtime:sf_runtime.dll
 0002:000002b0       __imp_callMdlMethodAndReportError 00000001800112b0     sf_runtime:sf_runtime.dll
 0002:000002b8       __imp_sf_set_compiledInfo  00000001800112b8     sf_runtime:sf_runtime.dll
 0002:000002c0       __imp_sf_get_isEnhancedMooreMachine 00000001800112c0     sf_runtime:sf_runtime.dll
 0002:000002c8       __imp_sf_debug_terminate   00000001800112c8     sf_runtime:sf_runtime.dll
 0002:000002d0       __imp_sf_debug_cv_init_state 00000001800112d0     sf_runtime:sf_runtime.dll
 0002:000002d8       __imp_sf_debug_cv_init_chart 00000001800112d8     sf_runtime:sf_runtime.dll
 0002:000002e0       __imp_sf_debug_cv_init_trans 00000001800112e0     sf_runtime:sf_runtime.dll
 0002:000002e8       __imp_sf_debug_data_range_wrapper 00000001800112e8     sf_runtime:sf_runtime.dll
 0002:000002f0       __imp_sf_debug_set_chart_substate_count 00000001800112f0     sf_runtime:sf_runtime.dll
 0002:000002f8       __imp_sf_debug_set_chart_decomposition 00000001800112f8     sf_runtime:sf_runtime.dll
 0002:00000300       __imp_sf_debug_set_chart_state_info 0000000180011300     sf_runtime:sf_runtime.dll
 0002:00000308       __imp_sf_debug_set_chart_event_thresholds 0000000180011308     sf_runtime:sf_runtime.dll
 0002:00000310       __imp_sf_debug_api         0000000180011310     sf_runtime:sf_runtime.dll
 0002:00000318       __imp_sf_get_ChartInfoStruct_CodeGen 0000000180011318     sf_runtime:sf_runtime.dll
 0002:00000320       __imp_sf_debug_set_chart_disable_implicit_casting 0000000180011320     sf_runtime:sf_runtime.dll
 0002:00000328       __imp_sf_debug_set_instance_data_value_ptr 0000000180011328     sf_runtime:sf_runtime.dll
 0002:00000330       __imp_sf_debug_symbol_scope_add_eml_importable 0000000180011330     sf_runtime:sf_runtime.dll
 0002:00000338       __imp_sf_debug_symbol_scope_add_eml 0000000180011338     sf_runtime:sf_runtime.dll
 0002:00000340       __imp_sf_debug_symbol_scope_pop 0000000180011340     sf_runtime:sf_runtime.dll
 0002:00000348       __imp_sf_debug_symbol_scope_push_eml 0000000180011348     sf_runtime:sf_runtime.dll
 0002:00000350       __imp_sf_debug_symbol_scope_push 0000000180011350     sf_runtime:sf_runtime.dll
 0002:00000358       __imp_sf_debug_set_chart_data_compiled_props 0000000180011358     sf_runtime:sf_runtime.dll
 0002:00000360       __imp_sf_debug_set_chart_data_props 0000000180011360     sf_runtime:sf_runtime.dll
 0002:00000368       __imp_sf_debug_check_for_state_inconsistency 0000000180011368     sf_runtime:sf_runtime.dll
 0002:00000370       __imp_sf_debug_reset_current_state_configuration 0000000180011370     sf_runtime:sf_runtime.dll
 0002:00000378       __imp_cv_eml_init_fcn      0000000180011378     sf_runtime:sf_runtime.dll
 0002:00000380       __imp_cv_eml_init_script   0000000180011380     sf_runtime:sf_runtime.dll
 0002:00000388       __imp_cv_eml_eval          0000000180011388     sf_runtime:sf_runtime.dll
 0002:00000390       __imp_eml_debug_line_call  0000000180011390     sf_runtime:sf_runtime.dll
 0002:00000398       __imp_sf_debug_call        0000000180011398     sf_runtime:sf_runtime.dll
 0002:000003a0       __imp_sf_debug_initialize_chart 00000001800113a0     sf_runtime:sf_runtime.dll
 0002:000003a8       __imp_ssGetOutputPortSignal_wrapper 00000001800113a8     sf_runtime:sf_runtime.dll
 0002:000003b0       __imp_ssGetInputPortSignal_wrapper 00000001800113b0     sf_runtime:sf_runtime.dll
 0002:000003b8       __imp_sf_mex_decode_encoded_mx_struct_array 00000001800113b8     sf_runtime:sf_runtime.dll
 0002:000003c0       __imp_sf_mex_import        00000001800113c0     sf_runtime:sf_runtime.dll
 0002:000003c8       __imp_sf_mex_destroy       00000001800113c8     sf_runtime:sf_runtime.dll
 0002:000003d0       __imp_sf_mex_dup           00000001800113d0     sf_runtime:sf_runtime.dll
 0002:000003d8       __imp_sf_mex_assign        00000001800113d8     sf_runtime:sf_runtime.dll
 0002:000003e0       __imp_sf_mex_getcell       00000001800113e0     sf_runtime:sf_runtime.dll
 0002:000003e8       __imp_sf_mex_setcell       00000001800113e8     sf_runtime:sf_runtime.dll
 0002:000003f0       __imp_sf_mex_createcellmatrix 00000001800113f0     sf_runtime:sf_runtime.dll
 0002:000003f8       __imp_sf_mex_create        00000001800113f8     sf_runtime:sf_runtime.dll
 0002:00000400       __imp_sf_mex_error_message 0000000180011400     sf_runtime:sf_runtime.dll
 0002:00000408       __imp_sf_register_codegen_names_for_scoped_functions_defined_by_chart 0000000180011408     sf_runtime:sf_runtime.dll
 0002:00000410       __imp_sf_set_chart_accesses_machine_info 0000000180011410     sf_runtime:sf_runtime.dll
 0002:00000418       __imp_sf_is_first_init_cond 0000000180011418     sf_runtime:sf_runtime.dll
 0002:00000420       __imp_sf_get_time          0000000180011420     sf_runtime:sf_runtime.dll
 0002:00000428       __imp_sf_set_rtw_dwork_info 0000000180011428     sf_runtime:sf_runtime.dll
 0002:00000430       __imp_sf_clear_rtw_identifier 0000000180011430     sf_runtime:sf_runtime.dll
 0002:00000438       __imp_sim_mode_is_modelref_sim 0000000180011438     sf_runtime:sf_runtime.dll
 0002:00000440       __imp_sim_mode_is_external 0000000180011440     sf_runtime:sf_runtime.dll
 0002:00000448       __imp_sim_mode_is_rtw_gen  0000000180011448     sf_runtime:sf_runtime.dll
 0002:00000450       __imp_sf_mark_chart_expressionable_inputs 0000000180011450     sf_runtime:sf_runtime.dll
 0002:00000458       __imp_sf_mark_chart_reusable_outputs 0000000180011458     sf_runtime:sf_runtime.dll
 0002:00000460       __imp_sf_is_chart_inlinable 0000000180011460     sf_runtime:sf_runtime.dll
 0002:00000468       __imp_sf_update_buildInfo  0000000180011468     sf_runtime:sf_runtime.dll
 0002:00000470       __imp_sf_rtw_info_uint_prop 0000000180011470     sf_runtime:sf_runtime.dll
 0002:00000478       __imp_sf_get_chart_instance_ptr 0000000180011478     sf_runtime:sf_runtime.dll
 0002:00000480       __imp_sf_free_ChartRunTimeInfo 0000000180011480     sf_runtime:sf_runtime.dll
 0002:00000488       __imp_sf_init_ChartRunTimeInfo 0000000180011488     sf_runtime:sf_runtime.dll
 0002:00000490       __imp_sf_debug_set_machine_data_thresholds 0000000180011490     sf_runtime:sf_runtime.dll
 0002:00000498       __imp_sf_debug_set_machine_event_thresholds 0000000180011498     sf_runtime:sf_runtime.dll
 0002:000004a0       __imp_sf_debug_initialize_machine 00000001800114a0     sf_runtime:sf_runtime.dll
 0002:000004a8       __imp_sf_load_rtw_optimization_info 00000001800114a8     sf_runtime:sf_runtime.dll
 0002:000004b0       \177sf_runtime_NULL_THUNK_DATA 00000001800114b0     sf_runtime:sf_runtime.dll
 0002:000004b8       __guard_check_icall_fptr   00000001800114b8     MSVCRT:guard_support.obj
 0002:000004c0       __guard_dispatch_icall_fptr 00000001800114c0     MSVCRT:guard_support.obj
 0002:000004c8       __xc_a                     00000001800114c8     MSVCRT:initializers.obj
 0002:000004d0       __xc_z                     00000001800114d0     MSVCRT:initializers.obj
 0002:000004d8       __xi_a                     00000001800114d8     MSVCRT:initializers.obj
 0002:000004e0       __xi_z                     00000001800114e0     MSVCRT:initializers.obj
 0002:000004e8       __xp_a                     00000001800114e8     MSVCRT:initializers.obj
 0002:000004f0       __xp_z                     00000001800114f0     MSVCRT:initializers.obj
 0002:000004f8       __xt_a                     00000001800114f8     MSVCRT:initializers.obj
 0002:00000500       __xt_z                     0000000180011500     MSVCRT:initializers.obj
 0002:00000510       __real@41b6a7b949000000    0000000180011510     Attitude_Control_System_of_Flying_Vehicle_sfun.obj
 0002:00000518       __real@41b96e01a6000000    0000000180011518     Attitude_Control_System_of_Flying_Vehicle_sfun.obj
 0002:00000520       __real@41bc987757000000    0000000180011520     Attitude_Control_System_of_Flying_Vehicle_sfun.obj
 0002:00000528       __real@41c4826f14000000    0000000180011528     Attitude_Control_System_of_Flying_Vehicle_sfun.obj
 0002:00000530       __real@41da6e802d800000    0000000180011530     Attitude_Control_System_of_Flying_Vehicle_sfun.obj
 0002:00000538       __real@41e30debb7000000    0000000180011538     Attitude_Control_System_of_Flying_Vehicle_sfun.obj
 0002:00000540       __real@41e718f4fd800000    0000000180011540     Attitude_Control_System_of_Flying_Vehicle_sfun.obj
 0002:00000548       __real@41e98e0335200000    0000000180011548     Attitude_Control_System_of_Flying_Vehicle_sfun.obj
 0002:00000550       __real@41e9d991a6e00000    0000000180011550     Attitude_Control_System_of_Flying_Vehicle_sfun.obj
 0002:00000558       __real@41ebf44f1f000000    0000000180011558     Attitude_Control_System_of_Flying_Vehicle_sfun.obj
 0002:00000560       __real@41ec424603600000    0000000180011560     Attitude_Control_System_of_Flying_Vehicle_sfun.obj
 0002:00000568       __real@41ef4e3c52e00000    0000000180011568     Attitude_Control_System_of_Flying_Vehicle_sfun.obj
 0002:00000570       __real@3ff0000000000000    0000000180011570     c2_Attitude_Control_System_of_Flying_Vehicle.obj
 0002:00000578       __real@4008000000000000    0000000180011578     c2_Attitude_Control_System_of_Flying_Vehicle.obj
 0002:00000580       __real@4014000000000000    0000000180011580     c2_Attitude_Control_System_of_Flying_Vehicle.obj
 0002:00000588       __real@4024000000000000    0000000180011588     c2_Attitude_Control_System_of_Flying_Vehicle.obj
 0002:00000590       __real@41c954fa47000000    0000000180011590     c2_Attitude_Control_System_of_Flying_Vehicle.obj
 0002:00000598       __real@41d56c5264400000    0000000180011598     c2_Attitude_Control_System_of_Flying_Vehicle.obj
 0002:000005a0       __real@41d8b5a775800000    00000001800115a0     c2_Attitude_Control_System_of_Flying_Vehicle.obj
 0002:000005a8       __real@41e05408f9200000    00000001800115a8     c2_Attitude_Control_System_of_Flying_Vehicle.obj
 0002:000005b0       __xmm@80000000000000008000000000000000 00000001800115b0     c2_Attitude_Control_System_of_Flying_Vehicle.obj
 0002:000005c0       DYNAMIC_DIMENSION_DEF      00000001800115c0     Attitude_Control_System_of_Flying_Vehicle_sfun_registry.obj
 0002:000005e0       _ssBadLevel2InputAccessMsg 00000001800115e0     Attitude_Control_System_of_Flying_Vehicle_sfun_registry.obj
 0002:00000770       _ssBadLevel2ReusableInputAccessMsg 0000000180011770     Attitude_Control_System_of_Flying_Vehicle_sfun_registry.obj
 0002:00000870       _ssBadLevel2DirectFeedMsg  0000000180011870     Attitude_Control_System_of_Flying_Vehicle_sfun_registry.obj
 0002:000009b0       _ssBadLevel2DirectFeedSolutionMsg 00000001800119b0     Attitude_Control_System_of_Flying_Vehicle_sfun_registry.obj
 0002:00000a20       _ssBadLevel2ZeroDirectFeedMsg 0000000180011a20     Attitude_Control_System_of_Flying_Vehicle_sfun_registry.obj
 0002:00000b60       _ssBadLevel2ZeroDirectFeedMsg2 0000000180011b60     Attitude_Control_System_of_Flying_Vehicle_sfun_registry.obj
 0002:00000c48       __real@0000000000000000    0000000180011c48     Attitude_Control_System_of_Flying_Vehicle_sfun_registry.obj
 0002:00000c50       __real@41602cbca0000000    0000000180011c50     Attitude_Control_System_of_Flying_Vehicle_sfun_registry.obj
 0002:00000c58       __real@bff0000000000000    0000000180011c58     Attitude_Control_System_of_Flying_Vehicle_sfun_registry.obj
 0002:00000c70       _pRawDllMain               0000000180011c70     MSVCRT:dll_dllmain.obj
 0002:00000c70       _pDefaultRawDllMain        0000000180011c70     MSVCRT:dll_dllmain.obj
 0002:00000ca0       _load_config_used          0000000180011ca0     MSVCRT:loadcfg.obj
 0002:00000f50       __rtc_iaa                  0000000180011f50     MSVCRT:_initsect_.obj
 0002:00000f58       __rtc_izz                  0000000180011f58     MSVCRT:_initsect_.obj
 0002:00000f60       __rtc_taa                  0000000180011f60     MSVCRT:_initsect_.obj
 0002:00000f68       __rtc_tzz                  0000000180011f68     MSVCRT:_initsect_.obj
 0002:00001864       __IMPORT_DESCRIPTOR_sf_runtime 0000000180012864     sf_runtime:sf_runtime.dll
 0002:00001878       __IMPORT_DESCRIPTOR_libmx  0000000180012878     libmx:libmx.dll
 0002:0000188c       __IMPORT_DESCRIPTOR_libmex 000000018001288c     libmex:libmex.dll
 0002:000018a0       __IMPORT_DESCRIPTOR_libut  00000001800128a0     libut:libut.dll
 0002:000018b4       __IMPORT_DESCRIPTOR_libmwmathutil 00000001800128b4     libmwmathutil:libmwmathutil.dll
 0002:000018c8       __IMPORT_DESCRIPTOR_KERNEL32 00000001800128c8     kernel32:KERNEL32.dll
 0002:000018dc       __IMPORT_DESCRIPTOR_VCRUNTIME140 00000001800128dc     vcruntime:VCRUNTIME140.dll
 0002:000018f0       __IMPORT_DESCRIPTOR_api-ms-win-crt-string-l1-1-0 00000001800128f0     ucrt:api-ms-win-crt-string-l1-1-0.dll
 0002:00001904       __IMPORT_DESCRIPTOR_api-ms-win-crt-heap-l1-1-0 0000000180012904     ucrt:api-ms-win-crt-heap-l1-1-0.dll
 0002:00001918       __IMPORT_DESCRIPTOR_api-ms-win-crt-stdio-l1-1-0 0000000180012918     ucrt:api-ms-win-crt-stdio-l1-1-0.dll
 0002:0000192c       __IMPORT_DESCRIPTOR_api-ms-win-crt-runtime-l1-1-0 000000018001292c     ucrt:api-ms-win-crt-runtime-l1-1-0.dll
 0002:00001940       __NULL_IMPORT_DESCRIPTOR   0000000180012940     sf_runtime:sf_runtime.dll
 0003:00001d50       DYNAMIC_DIMENSION          0000000180015d50     Attitude_Control_System_of_Flying_Vehicle_sfun_registry.obj
 0003:00001d60       __security_cookie          0000000180015d60     MSVCRT:gs_cookie.obj
 0003:00001d68       __security_cookie_complement 0000000180015d68     MSVCRT:gs_cookie.obj
 0003:00001d70       _fltused                   0000000180015d70     MSVCRT:dllsupp.obj
 0003:00001d74       __scrt_native_dllmain_reason 0000000180015d74     MSVCRT:utility.obj
 0003:00001d78       __isa_available            0000000180015d78     MSVCRT:_cpu_disp_.obj
 0003:00001d7c       __isa_enabled              0000000180015d7c     MSVCRT:_cpu_disp_.obj
 0003:00001d80       __memcpy_nt_iters          0000000180015d80     MSVCRT:_cpu_disp_.obj
 0003:00001d90       __scrt_ucrt_dll_is_in_use  0000000180015d90     MSVCRT:ucrt_stubs.obj
 0003:00001dc0       sfGlobalDebugInstanceStruct 0000000180015dc0     Attitude_Control_System_of_Flying_Vehicle_sfun_registry.obj
 0003:00002418       __scrt_current_native_startup_state 0000000180016418     MSVCRT:utility.obj
 0003:00002420       __scrt_native_startup_lock 0000000180016420     MSVCRT:utility.obj
 0003:00002460       ?__type_info_root_node@@3U__type_info_node@@A 0000000180016460     MSVCRT:tncleanup.obj
 0003:00002470       ?_OptionsStorage@?1??__local_stdio_printf_options@@9@4_KA 0000000180016470     MSVCRT:default_local_stdio_options.obj
 0003:00002478       ?_OptionsStorage@?1??__local_stdio_scanf_options@@9@4_KA 0000000180016478     MSVCRT:default_local_stdio_options.obj
 0003:00002480       __scrt_debugger_hook_flag  0000000180016480     MSVCRT:utility_desktop.obj
 0003:00002484       __favor                    0000000180016484     MSVCRT:_cpu_disp_.obj
 0003:00002488       ?_OptionsStorage@?1??__local_stdio_printf_options@@9@9 0000000180016488     <common>
 0003:00002490       _Attitude_Control_System_of_Flying_VehicleMachineNumber_ 0000000180016490     <common>
 0003:00002498       __dyn_tls_init_callback    0000000180016498     <common>

 entry point at        0001:0000e7a8

 Static symbols

 0000:00000000       .debug$S                   0000000180000000     libmx:libmx.dll
 0000:00000000       .debug$S                   0000000180000000     Attitude_Control_System_of_Flying_Vehicle_sfun.exp
 0000:00000000       .debug$S                   0000000180000000     sf_runtime:sf_runtime.dll
 0000:00000000       .debug$S                   0000000180000000     sf_runtime:sf_runtime.dll
 0000:00000000       .debug$S                   0000000180000000     sf_runtime:sf_runtime.dll
 0000:00000000       .debug$S                   0000000180000000     sf_runtime:sf_runtime.dll
 0000:00000000       .debug$S                   0000000180000000     sf_runtime:sf_runtime.dll
 0000:00000000       .debug$S                   0000000180000000     ucrt:api-ms-win-crt-heap-l1-1-0.dll
 0000:00000000       .debug$S                   0000000180000000     ucrt:api-ms-win-crt-heap-l1-1-0.dll
 0000:00000000       .debug$S                   0000000180000000     ucrt:api-ms-win-crt-runtime-l1-1-0.dll
 0000:00000000       .debug$S                   0000000180000000     ucrt:api-ms-win-crt-runtime-l1-1-0.dll
 0000:00000000       .debug$S                   0000000180000000     ucrt:api-ms-win-crt-runtime-l1-1-0.dll
 0000:00000000       .debug$S                   0000000180000000     ucrt:api-ms-win-crt-runtime-l1-1-0.dll
 0000:00000000       .debug$S                   0000000180000000     ucrt:api-ms-win-crt-runtime-l1-1-0.dll
 0000:00000000       .debug$S                   0000000180000000     ucrt:api-ms-win-crt-runtime-l1-1-0.dll
 0000:00000000       .debug$S                   0000000180000000     ucrt:api-ms-win-crt-runtime-l1-1-0.dll
 0000:00000000       .debug$S                   0000000180000000     ucrt:api-ms-win-crt-runtime-l1-1-0.dll
 0000:00000000       .debug$S                   0000000180000000     ucrt:api-ms-win-crt-runtime-l1-1-0.dll
 0000:00000000       .debug$S                   0000000180000000     ucrt:api-ms-win-crt-runtime-l1-1-0.dll
 0000:00000000       .debug$S                   0000000180000000     ucrt:api-ms-win-crt-runtime-l1-1-0.dll
 0000:00000000       .debug$S                   0000000180000000     ucrt:api-ms-win-crt-stdio-l1-1-0.dll
 0000:00000000       .debug$S                   0000000180000000     sf_runtime:sf_runtime.dll
 0000:00000000       .debug$S                   0000000180000000     ucrt:api-ms-win-crt-string-l1-1-0.dll
 0000:00000000       .debug$S                   0000000180000000     ucrt:api-ms-win-crt-string-l1-1-0.dll
 0000:00000000       .debug$S                   0000000180000000     ucrt:api-ms-win-crt-string-l1-1-0.dll
 0000:00000000       .debug$S                   0000000180000000     sf_runtime:sf_runtime.dll
 0000:00000000       .debug$S                   0000000180000000     vcruntime:VCRUNTIME140.dll
 0000:00000000       .debug$S                   0000000180000000     vcruntime:VCRUNTIME140.dll
 0000:00000000       .debug$S                   0000000180000000     vcruntime:VCRUNTIME140.dll
 0000:00000000       .debug$S                   0000000180000000     vcruntime:VCRUNTIME140.dll
 0000:00000000       .debug$S                   0000000180000000     vcruntime:VCRUNTIME140.dll
 0000:00000000       .debug$S                   0000000180000000     vcruntime:VCRUNTIME140.dll
 0000:00000000       .debug$S                   0000000180000000     sf_runtime:sf_runtime.dll
 0000:00000000       .debug$S                   0000000180000000     kernel32:KERNEL32.dll
 0000:00000000       .debug$S                   0000000180000000     kernel32:KERNEL32.dll
 0000:00000000       .debug$S                   0000000180000000     kernel32:KERNEL32.dll
 0000:00000000       .debug$S                   0000000180000000     kernel32:KERNEL32.dll
 0000:00000000       .debug$S                   0000000180000000     kernel32:KERNEL32.dll
 0000:00000000       .debug$S                   0000000180000000     kernel32:KERNEL32.dll
 0000:00000000       .debug$S                   0000000180000000     kernel32:KERNEL32.dll
 0000:00000000       .debug$S                   0000000180000000     kernel32:KERNEL32.dll
 0000:00000000       .debug$S                   0000000180000000     kernel32:KERNEL32.dll
 0000:00000000       .debug$S                   0000000180000000     kernel32:KERNEL32.dll
 0000:00000000       .debug$S                   0000000180000000     kernel32:KERNEL32.dll
 0000:00000000       .debug$S                   0000000180000000     kernel32:KERNEL32.dll
 0000:00000000       .debug$S                   0000000180000000     kernel32:KERNEL32.dll
 0000:00000000       .debug$S                   0000000180000000     kernel32:KERNEL32.dll
 0000:00000000       .debug$S                   0000000180000000     kernel32:KERNEL32.dll
 0000:00000000       .debug$S                   0000000180000000     kernel32:KERNEL32.dll
 0000:00000000       .debug$S                   0000000180000000     kernel32:KERNEL32.dll
 0000:00000000       .debug$S                   0000000180000000     sf_runtime:sf_runtime.dll
 0000:00000000       .debug$S                   0000000180000000     sf_runtime:sf_runtime.dll
 0002:fffef000       __guard_fids___scrt_set_unhandled_exception_filter 0000000180000000     MSVCRT:utility_desktop.obj
 0000:00000000       .debug$S                   0000000180000000     sf_runtime:sf_runtime.dll
 0000:00000000       .debug$S                   0000000180000000     sf_runtime:sf_runtime.dll
 0000:00000000       .debug$S                   0000000180000000     sf_runtime:sf_runtime.dll
 0000:00000000       .debug$S                   0000000180000000     sf_runtime:sf_runtime.dll
 0000:00000000       .debug$S                   0000000180000000     sf_runtime:sf_runtime.dll
 0000:00000000       .debug$S                   0000000180000000     sf_runtime:sf_runtime.dll
 0000:00000000       .debug$S                   0000000180000000     sf_runtime:sf_runtime.dll
 0000:00000000       .debug$S                   0000000180000000     sf_runtime:sf_runtime.dll
 0000:00000000       .debug$S                   0000000180000000     sf_runtime:sf_runtime.dll
 0000:00000000       .debug$S                   0000000180000000     sf_runtime:sf_runtime.dll
 0000:00000000       .debug$S                   0000000180000000     sf_runtime:sf_runtime.dll
 0000:00000000       .debug$S                   0000000180000000     sf_runtime:sf_runtime.dll
 0000:00000000       .debug$S                   0000000180000000     sf_runtime:sf_runtime.dll
 0000:00000000       .debug$S                   0000000180000000     sf_runtime:sf_runtime.dll
 0000:00000000       .debug$S                   0000000180000000     sf_runtime:sf_runtime.dll
 0000:00000000       .debug$S                   0000000180000000     sf_runtime:sf_runtime.dll
 0000:00000000       .debug$S                   0000000180000000     sf_runtime:sf_runtime.dll
 0000:00000000       .debug$S                   0000000180000000     sf_runtime:sf_runtime.dll
 0000:00000000       .debug$S                   0000000180000000     sf_runtime:sf_runtime.dll
 0000:00000000       .debug$S                   0000000180000000     sf_runtime:sf_runtime.dll
 0000:00000000       .debug$S                   0000000180000000     sf_runtime:sf_runtime.dll
 0000:00000000       .debug$S                   0000000180000000     sf_runtime:sf_runtime.dll
 0000:00000000       .debug$S                   0000000180000000     sf_runtime:sf_runtime.dll
 0000:00000000       .debug$S                   0000000180000000     sf_runtime:sf_runtime.dll
 0000:00000000       .debug$S                   0000000180000000     sf_runtime:sf_runtime.dll
 0002:fffef000       __guard_fids_?dllmain_dispatch@@YAHQEAUHINSTANCE__@@KQEAX@Z 0000000180000000     MSVCRT:dll_dllmain.obj
 0000:00000000       .debug$S                   0000000180000000     sf_runtime:sf_runtime.dll
 0000:00000000       .debug$S                   0000000180000000     sf_runtime:sf_runtime.dll
 0000:00000000       .debug$S                   0000000180000000     sf_runtime:sf_runtime.dll
 0000:00000000       .debug$S                   0000000180000000     sf_runtime:sf_runtime.dll
 0000:00000000       .debug$S                   0000000180000000     sf_runtime:sf_runtime.dll
 0000:00000000       .debug$S                   0000000180000000     sf_runtime:sf_runtime.dll
 0002:fffef000       __guard_fids_?dllmain_crt_process_attach@@YAHQEAUHINSTANCE__@@QEAX@Z 0000000180000000     MSVCRT:dll_dllmain.obj
 0000:00000000       .debug$S                   0000000180000000     sf_runtime:sf_runtime.dll
 0000:00000000       .debug$S                   0000000180000000     sf_runtime:sf_runtime.dll
 0000:00000000       .debug$S                   0000000180000000     sf_runtime:sf_runtime.dll
 0000:00000000       .debug$S                   0000000180000000     sf_runtime:sf_runtime.dll
 0000:00000000       .debug$S                   0000000180000000     sf_runtime:sf_runtime.dll
 0000:00000000       .debug$S                   0000000180000000     sf_runtime:sf_runtime.dll
 0000:00000000       .debug$S                   0000000180000000     sf_runtime:sf_runtime.dll
 0000:00000000       .debug$S                   0000000180000000     sf_runtime:sf_runtime.dll
 0000:00000000       .debug$S                   0000000180000000     sf_runtime:sf_runtime.dll
 0002:fffef000       __guard_fids__guard_icall_checks_enforced 0000000180000000     MSVCRT:guard_support.obj
 0002:fffef000       __guard_fids__             0000000180000000     MSVCRT:guard_support.obj
 0000:00000000       .debug$S                   0000000180000000     sf_runtime:sf_runtime.dll
 0000:00000000       .debug$S                   0000000180000000     sf_runtime:sf_runtime.dll
 0000:00000000       .debug$S                   0000000180000000     sf_runtime:sf_runtime.dll
 0000:00000000       .debug$S                   0000000180000000     sf_runtime:sf_runtime.dll
 0000:00000000       .debug$S                   0000000180000000     sf_runtime:sf_runtime.dll
 0000:00000000       .debug$S                   0000000180000000     sf_runtime:sf_runtime.dll
 0000:00000000       .debug$S                   0000000180000000     sf_runtime:sf_runtime.dll
 0000:00000000       .debug$S                   0000000180000000     sf_runtime:sf_runtime.dll
 0000:00000000       .debug$S                   0000000180000000     sf_runtime:sf_runtime.dll
 0000:00000000       .debug$S                   0000000180000000     sf_runtime:sf_runtime.dll
 0000:00000000       .debug$S                   0000000180000000     sf_runtime:sf_runtime.dll
 0000:00000000       .debug$S                   0000000180000000     sf_runtime:sf_runtime.dll
 0000:00000000       .debug$S                   0000000180000000     sf_runtime:sf_runtime.dll
 0000:00000000       .debug$S                   0000000180000000     sf_runtime:sf_runtime.dll
 0000:00000000       .debug$S                   0000000180000000     sf_runtime:sf_runtime.dll
 0000:00000000       .debug$S                   0000000180000000     sf_runtime:sf_runtime.dll
 0000:00000000       .debug$S                   0000000180000000     sf_runtime:sf_runtime.dll
 0000:00000000       .debug$S                   0000000180000000     sf_runtime:sf_runtime.dll
 0000:00000000       .debug$S                   0000000180000000     libmx:libmx.dll
 0000:00000000       .debug$S                   0000000180000000     libmx:libmx.dll
 0000:00000000       .debug$S                   0000000180000000     libmx:libmx.dll
 0000:00000000       .debug$S                   0000000180000000     libmx:libmx.dll
 0000:00000000       .debug$S                   0000000180000000     libmwmathutil:libmwmathutil.dll
 0000:00000000       .debug$S                   0000000180000000     libmx:libmx.dll
 0000:00000000       .debug$S                   0000000180000000     libmx:libmx.dll
 0000:00000000       .debug$S                   0000000180000000     libmx:libmx.dll
 0000:00000000       .debug$S                   0000000180000000     libmx:libmx.dll
 0000:00000000       .debug$S                   0000000180000000     libmx:libmx.dll
 0000:00000000       .debug$S                   0000000180000000     libmx:libmx.dll
 0000:00000000       .debug$S                   0000000180000000     libmx:libmx.dll
 0000:00000000       .debug$S                   0000000180000000     libmx:libmx.dll
 0000:00000000       .debug$S                   0000000180000000     libmx:libmx.dll
 0000:00000000       .debug$S                   0000000180000000     libmx:libmx.dll
 0000:00000000       .debug$S                   0000000180000000     libmx:libmx.dll
 0000:00000000       .debug$S                   0000000180000000     libmx:libmx.dll
 0000:00000000       .debug$S                   0000000180000000     libmx:libmx.dll
 0000:00000000       .debug$S                   0000000180000000     libmx:libmx.dll
 0000:00000000       .debug$S                   0000000180000000     libmx:libmx.dll
 0000:00000000       .debug$S                   0000000180000000     libmex:libmex.dll
 0000:00000000       .debug$S                   0000000180000000     libmex:libmex.dll
 0000:00000000       .debug$S                   0000000180000000     libmex:libmex.dll
 0000:00000000       .debug$S                   0000000180000000     libmex:libmex.dll
 0000:00000000       .debug$S                   0000000180000000     libmex:libmex.dll
 0000:00000000       .debug$S                   0000000180000000     libmex:libmex.dll
 0000:00000000       .debug$S                   0000000180000000     libmex:libmex.dll
 0000:00000000       .debug$S                   0000000180000000     libut:libut.dll
 0000:00000000       .debug$S                   0000000180000000     libut:libut.dll
 0000:00000000       .debug$S                   0000000180000000     libmwmathutil:libmwmathutil.dll
 0000:00000000       .debug$S                   0000000180000000     libmwmathutil:libmwmathutil.dll
 0001:00001160       chart_debug_initialization 0000000180002160 f   c2_Attitude_Control_System_of_Flying_Vehicle.obj
 0001:00001d60       chart_debug_initialize_data_addresses 0000000180002d60 f   c2_Attitude_Control_System_of_Flying_Vehicle.obj
 0001:00002020       initialize_c2_Attitude_Control_System_of_Flying_Vehicle 0000000180003020 f   c2_Attitude_Control_System_of_Flying_Vehicle.obj
 0001:00002090       initialize_params_c2_Attitude_Control_System_of_Flying_Vehicle 0000000180003090 f   c2_Attitude_Control_System_of_Flying_Vehicle.obj
 0001:000020a0       enable_c2_Attitude_Control_System_of_Flying_Vehicle 00000001800030a0 f   c2_Attitude_Control_System_of_Flying_Vehicle.obj
 0001:000020d0       disable_c2_Attitude_Control_System_of_Flying_Vehicle 00000001800030d0 f   c2_Attitude_Control_System_of_Flying_Vehicle.obj
 0001:00002100       c2_update_debugger_state_c2_Attitude_Control_System_of_Flying_Ve 0000000180003100 f   c2_Attitude_Control_System_of_Flying_Vehicle.obj
 0001:00002110       get_sim_state_c2_Attitude_Control_System_of_Flying_Vehicle 0000000180003110 f   c2_Attitude_Control_System_of_Flying_Vehicle.obj
 0001:00002390       set_sim_state_c2_Attitude_Control_System_of_Flying_Vehicle 0000000180003390 f   c2_Attitude_Control_System_of_Flying_Vehicle.obj
 0001:000024f0       finalize_c2_Attitude_Control_System_of_Flying_Vehicle 00000001800034f0 f   c2_Attitude_Control_System_of_Flying_Vehicle.obj
 0001:00002500       sf_gateway_c2_Attitude_Control_System_of_Flying_Vehicle 0000000180003500 f   c2_Attitude_Control_System_of_Flying_Vehicle.obj
 0001:00003a80       mdl_start_c2_Attitude_Control_System_of_Flying_Vehicle 0000000180004a80 f   c2_Attitude_Control_System_of_Flying_Vehicle.obj
 0001:00003a90       initSimStructsc2_Attitude_Control_System_of_Flying_Vehicle 0000000180004a90 f   c2_Attitude_Control_System_of_Flying_Vehicle.obj
 0001:00003aa0       init_script_number_translation 0000000180004aa0 f   c2_Attitude_Control_System_of_Flying_Vehicle.obj
 0001:00003ac0       c2_sf_marshallOut          0000000180004ac0 f   c2_Attitude_Control_System_of_Flying_Vehicle.obj
 0001:00003b70       c2_emlrt_marshallIn        0000000180004b70 f   c2_Attitude_Control_System_of_Flying_Vehicle.obj
 0001:00003be0       c2_b_emlrt_marshallIn      0000000180004be0 f   c2_Attitude_Control_System_of_Flying_Vehicle.obj
 0001:00003c70       c2_sf_marshallIn           0000000180004c70 f   c2_Attitude_Control_System_of_Flying_Vehicle.obj
 0001:00003d20       c2_b_sf_marshallOut        0000000180004d20 f   c2_Attitude_Control_System_of_Flying_Vehicle.obj
 0001:00003e30       c2_c_emlrt_marshallIn      0000000180004e30 f   c2_Attitude_Control_System_of_Flying_Vehicle.obj
 0001:00003f20       c2_b_sf_marshallIn         0000000180004f20 f   c2_Attitude_Control_System_of_Flying_Vehicle.obj
 0001:00004020       c2_c_sf_marshallOut        0000000180005020 f   c2_Attitude_Control_System_of_Flying_Vehicle.obj
 0001:00004180       c2_d_emlrt_marshallIn      0000000180005180 f   c2_Attitude_Control_System_of_Flying_Vehicle.obj
 0001:00004280       c2_c_sf_marshallIn         0000000180005280 f   c2_Attitude_Control_System_of_Flying_Vehicle.obj
 0001:000043d0       c2_f_emlrt_marshallIn      00000001800053d0 f   c2_Attitude_Control_System_of_Flying_Vehicle.obj
 0001:00004440       c2_g_emlrt_marshallIn      0000000180005440 f   c2_Attitude_Control_System_of_Flying_Vehicle.obj
 0001:000044d0       init_dsm_address_info      00000001800054d0 f   c2_Attitude_Control_System_of_Flying_Vehicle.obj
 0001:000044e0       init_simulink_io_address   00000001800054e0 f   c2_Attitude_Control_System_of_Flying_Vehicle.obj
 0001:00005480       sf_get_sim_state_info_c2_Attitude_Control_System_of_Flying_Vehicle 0000000180006480 f   c2_Attitude_Control_System_of_Flying_Vehicle.obj
 0001:00005550       sf_get_instance_specialization 0000000180006550 f   c2_Attitude_Control_System_of_Flying_Vehicle.obj
 0001:00005560       sf_opaque_initialize_c2_Attitude_Control_System_of_Flying_Vehicle 0000000180006560 f   c2_Attitude_Control_System_of_Flying_Vehicle.obj
 0001:000055a0       sf_opaque_enable_c2_Attitude_Control_System_of_Flying_Vehicle 00000001800065a0 f   c2_Attitude_Control_System_of_Flying_Vehicle.obj
 0001:000055c0       sf_opaque_disable_c2_Attitude_Control_System_of_Flying_Vehicle 00000001800065c0 f   c2_Attitude_Control_System_of_Flying_Vehicle.obj
 0001:000055e0       sf_opaque_gateway_c2_Attitude_Control_System_of_Flying_Vehicle 00000001800065e0 f   c2_Attitude_Control_System_of_Flying_Vehicle.obj
 0001:00005600       sf_opaque_get_sim_state_c2_Attitude_Control_System_of_Flying_Vehicle 0000000180006600 f   c2_Attitude_Control_System_of_Flying_Vehicle.obj
 0001:00005630       sf_opaque_set_sim_state_c2_Attitude_Control_System_of_Flying_Vehicle 0000000180006630 f   c2_Attitude_Control_System_of_Flying_Vehicle.obj
 0001:00005660       sf_opaque_terminate_c2_Attitude_Control_System_of_Flying_Vehicle 0000000180006660 f   c2_Attitude_Control_System_of_Flying_Vehicle.obj
 0001:00005700       mdlProcessParameters_c2_Attitude_Control_System_of_Flying_Vehicle 0000000180006700 f   c2_Attitude_Control_System_of_Flying_Vehicle.obj
 0001:000057c0       mdlSetWorkWidths_c2_Attitude_Control_System_of_Flying_Vehicle 00000001800067c0 f   c2_Attitude_Control_System_of_Flying_Vehicle.obj
 0001:00005f20       mdlRTW_c2_Attitude_Control_System_of_Flying_Vehicle 0000000180006f20 f   c2_Attitude_Control_System_of_Flying_Vehicle.obj
 0001:00005f60       mdlStart_c2_Attitude_Control_System_of_Flying_Vehicle 0000000180006f60 f   c2_Attitude_Control_System_of_Flying_Vehicle.obj
 0001:000074a8       $LN120                     00000001800084a8     Attitude_Control_System_of_Flying_Vehicle_sfun_registry.obj
 0001:00009524       $LN17                      000000018000a524     Attitude_Control_System_of_Flying_Vehicle_sfun_registry.obj
 0001:00009aac       $LN26                      000000018000aaac     Attitude_Control_System_of_Flying_Vehicle_sfun_registry.obj
 0001:0000a194       $LN23                      000000018000b194     Attitude_Control_System_of_Flying_Vehicle_sfun_registry.obj
 0001:0000a764       $LN26                      000000018000b764     Attitude_Control_System_of_Flying_Vehicle_sfun_registry.obj
 0001:0000c370       sf_debug_api_wrapper       000000018000d370 f   Attitude_Control_System_of_Flying_Vehicle_sfun_registry.obj
 0001:0000c3c0       ProcessMexSfunctionCmdLineCall 000000018000d3c0 f   Attitude_Control_System_of_Flying_Vehicle_sfun_registry.obj
 0001:0000c730       mdlSetWorkWidths           000000018000d730 f   Attitude_Control_System_of_Flying_Vehicle_sfun_registry.obj
 0001:0000c760       mdlProcessParameters       000000018000d760 f   Attitude_Control_System_of_Flying_Vehicle_sfun_registry.obj
 0001:0000c790       mdl_start_processing       000000018000d790 f   Attitude_Control_System_of_Flying_Vehicle_sfun_registry.obj
 0001:0000c840       mdl_terminate_processing   000000018000d840 f   Attitude_Control_System_of_Flying_Vehicle_sfun_registry.obj
 0001:0000c8d0       mdlStart                   000000018000d8d0 f   Attitude_Control_System_of_Flying_Vehicle_sfun_registry.obj
 0001:0000c900       mdlTerminate               000000018000d900 f   Attitude_Control_System_of_Flying_Vehicle_sfun_registry.obj
 0001:0000c930       mdlInitializeSizes         000000018000d930 f   Attitude_Control_System_of_Flying_Vehicle_sfun_registry.obj
 0001:0000c960       mdlInitializeSampleTimes   000000018000d960 f   Attitude_Control_System_of_Flying_Vehicle_sfun_registry.obj
 0001:0000c990       mdl_outputs_continuous_legacy 000000018000d990 f   Attitude_Control_System_of_Flying_Vehicle_sfun_registry.obj
 0001:0000ca90       mdl_outputs_processing     000000018000da90 f   Attitude_Control_System_of_Flying_Vehicle_sfun_registry.obj
 0001:0000cbb0       mdl_zeroCrossings_processing 000000018000dbb0 f   Attitude_Control_System_of_Flying_Vehicle_sfun_registry.obj
 0001:0000cbf0       mdlZeroCrossings           000000018000dbf0 f   Attitude_Control_System_of_Flying_Vehicle_sfun_registry.obj
 0001:0000cc20       mdl_derivatives_processing 000000018000dc20 f   Attitude_Control_System_of_Flying_Vehicle_sfun_registry.obj
 0001:0000cc70       mdlDerivatives             000000018000dc70 f   Attitude_Control_System_of_Flying_Vehicle_sfun_registry.obj
 0001:0000cca0       mdl_initialize_conditions_processing 000000018000dca0 f   Attitude_Control_System_of_Flying_Vehicle_sfun_registry.obj
 0001:0000ccf0       mdlInitializeConditions    000000018000dcf0 f   Attitude_Control_System_of_Flying_Vehicle_sfun_registry.obj
 0001:0000cd20       mdl_ext_mode_exec_processing 000000018000dd20 f   Attitude_Control_System_of_Flying_Vehicle_sfun_registry.obj
 0001:0000cd60       mdlExtModeExec             000000018000dd60 f   Attitude_Control_System_of_Flying_Vehicle_sfun_registry.obj
 0001:0000cd90       mdlRTW                     000000018000dd90 f   Attitude_Control_System_of_Flying_Vehicle_sfun_registry.obj
 0001:0000cdd0       mdl_enable_processing      000000018000ddd0 f   Attitude_Control_System_of_Flying_Vehicle_sfun_registry.obj
 0001:0000ce10       mdlEnable                  000000018000de10 f   Attitude_Control_System_of_Flying_Vehicle_sfun_registry.obj
 0001:0000ce40       mdl_disable_processing     000000018000de40 f   Attitude_Control_System_of_Flying_Vehicle_sfun_registry.obj
 0001:0000ce80       mdlDisable                 000000018000de80 f   Attitude_Control_System_of_Flying_Vehicle_sfun_registry.obj
 0001:0000ceb0       mdlOutputs                 000000018000deb0 f   Attitude_Control_System_of_Flying_Vehicle_sfun_registry.obj
 0001:0000cee0       mdl_update_processing      000000018000dee0 f   Attitude_Control_System_of_Flying_Vehicle_sfun_registry.obj
 0001:0000cf30       mdlUpdate                  000000018000df30 f   Attitude_Control_System_of_Flying_Vehicle_sfun_registry.obj
 0001:0000d110       mdlGetTimeOfNextVarHit     000000018000e110 f   Attitude_Control_System_of_Flying_Vehicle_sfun_registry.obj
 0001:0000d160       _RegNumInputPortsCB        000000018000e160 f   Attitude_Control_System_of_Flying_Vehicle_sfun_registry.obj
 0001:0000d1e0       _RegNumOutputPortsCB       000000018000e1e0 f   Attitude_Control_System_of_Flying_Vehicle_sfun_registry.obj
 0001:0000d260       _CreateSimStruct           000000018000e260 f   Attitude_Control_System_of_Flying_Vehicle_sfun_registry.obj
 0001:0000d440       _ssFatalError              000000018000e440 f   Attitude_Control_System_of_Flying_Vehicle_sfun_registry.obj
 0001:0000d510       _ProcessMexSfunctionCmdLineCall 000000018000e510 f   Attitude_Control_System_of_Flying_Vehicle_sfun_registry.obj
 0001:0000e2b0       capture_current_context    000000018000f2b0 f   MSVCRT:gs_report.obj
 0001:0000e320       capture_previous_context   000000018000f320 f   MSVCRT:gs_report.obj
 0001:0000e410       $$000000                   000000018000f410     MSVCRT:_amdsecgs_.obj
 0001:0000e444       ?dllmain_crt_dispatch@@YAHQEAUHINSTANCE__@@KQEAX@Z 000000018000f444 f   MSVCRT:dll_dllmain.obj
 0001:0000e494       ?dllmain_crt_process_attach@@YAHQEAUHINSTANCE__@@QEAX@Z 000000018000f494 f   MSVCRT:dll_dllmain.obj
 0001:0000e5c0       ?dllmain_crt_process_detach@@YAH_N@Z 000000018000f5c0 f   MSVCRT:dll_dllmain.obj
 0001:0000e644       ?dllmain_dispatch@@YAHQEAUHINSTANCE__@@KQEAX@Z 000000018000f644 f   MSVCRT:dll_dllmain.obj
 0001:0000e74c       ?dllmain_raw@@YAHQEAUHINSTANCE__@@KQEAX@Z 000000018000f74c f   MSVCRT:dll_dllmain.obj
 0001:0000e82c       ?find_pe_section@@YAPEAU_IMAGE_SECTION_HEADER@@QEAE_K@Z 000000018000f82c f   MSVCRT:utility.obj
 0001:0000e878       ?is_potentially_valid_image_base@@YA_NQEAX@Z 000000018000f878 f   MSVCRT:utility.obj
 0001:0000f3a0       $$000000                   00000001800103a0     MSVCRT:_guard_dispatch_.obj
 0001:0000f3b2       ?fin$0@?0??dllmain_crt_process_attach@@YAHQEAUHINSTANCE__@@QEAX@Z@4HA 00000001800103b2 f   MSVCRT:dll_dllmain.obj
 0001:0000f3c9       ?fin$0@?0??dllmain_crt_process_detach@@YAH_N@Z@4HA 00000001800103c9 f   MSVCRT:dll_dllmain.obj
 0001:0000f3e5       ?filt$0@?0??dllmain_dispatch@@YAHQEAUHINSTANCE__@@KQEAX@Z@4HA 00000001800103e5 f   MSVCRT:dll_dllmain.obj
 0001:0000f41b       __scrt_is_nonwritable_in_current_image$filt$0 000000018001041b f   MSVCRT:utility.obj
 0002:00000c60       GS_ExceptionPointers       0000000180011c60     MSVCRT:gs_report.obj
 0002:00000f70       $unwind$load_Attitude_Control_System_of_Flying_Vehicle_optimization_info 0000000180011f70     Attitude_Control_System_of_Flying_Vehicle_sfun.obj
 0002:00000f78       $unwind$unload_Attitude_Control_System_of_Flying_Vehicle_optimization_info 0000000180011f78     Attitude_Control_System_of_Flying_Vehicle_sfun.obj
 0002:00000f80       $unwind$sf_Attitude_Control_System_of_Flying_Vehicle_method_dispatcher 0000000180011f80     Attitude_Control_System_of_Flying_Vehicle_sfun.obj
 0002:00000f88       $unwind$sf_Attitude_Control_System_of_Flying_Vehicle_process_check_sum_call 0000000180011f88     Attitude_Control_System_of_Flying_Vehicle_sfun.obj
 0002:00000f98       $unwind$sf_Attitude_Control_System_of_Flying_Vehicle_autoinheritance_info 0000000180011f98     Attitude_Control_System_of_Flying_Vehicle_sfun.obj
 0002:00000fa8       $unwind$sf_Attitude_Control_System_of_Flying_Vehicle_get_eml_resolved_functions_info 0000000180011fa8     Attitude_Control_System_of_Flying_Vehicle_sfun.obj
 0002:00000fb8       $unwind$sf_Attitude_Control_System_of_Flying_Vehicle_third_party_uses_info 0000000180011fb8     Attitude_Control_System_of_Flying_Vehicle_sfun.obj
 0002:00000fc8       $unwind$sf_Attitude_Control_System_of_Flying_Vehicle_jit_fallback_info 0000000180011fc8     Attitude_Control_System_of_Flying_Vehicle_sfun.obj
 0002:00000fd8       $unwind$sf_Attitude_Control_System_of_Flying_Vehicle_updateBuildInfo_args_info 0000000180011fd8     Attitude_Control_System_of_Flying_Vehicle_sfun.obj
 0002:00000fe8       $unwind$Attitude_Control_System_of_Flying_Vehicle_debug_initialize 0000000180011fe8     Attitude_Control_System_of_Flying_Vehicle_sfun.obj
 0002:00000ff0       $unwind$sf_c2_Attitude_Control_System_of_Flying_Vehicle_get_eml_resolved_functions_info 0000000180011ff0     c2_Attitude_Control_System_of_Flying_Vehicle.obj
 0002:00000ff8       $unwind$sf_c2_Attitude_Control_System_of_Flying_Vehicle_get_check_sum 0000000180011ff8     c2_Attitude_Control_System_of_Flying_Vehicle.obj
 0002:00001000       $unwind$c2_Attitude_Control_System_of_Flying_Vehicle_method_dispatcher 0000000180012000     c2_Attitude_Control_System_of_Flying_Vehicle.obj
 0002:00001008       $unwind$chart_debug_initialization 0000000180012008     c2_Attitude_Control_System_of_Flying_Vehicle.obj
 0002:00001010       $unwind$chart_debug_initialize_data_addresses 0000000180012010     c2_Attitude_Control_System_of_Flying_Vehicle.obj
 0002:00001018       $unwind$initialize_c2_Attitude_Control_System_of_Flying_Vehicle 0000000180012018     c2_Attitude_Control_System_of_Flying_Vehicle.obj
 0002:00001020       $unwind$enable_c2_Attitude_Control_System_of_Flying_Vehicle 0000000180012020     c2_Attitude_Control_System_of_Flying_Vehicle.obj
 0002:00001028       $unwind$disable_c2_Attitude_Control_System_of_Flying_Vehicle 0000000180012028     c2_Attitude_Control_System_of_Flying_Vehicle.obj
 0002:00001030       $unwind$get_sim_state_c2_Attitude_Control_System_of_Flying_Vehicle 0000000180012030     c2_Attitude_Control_System_of_Flying_Vehicle.obj
 0002:00001038       $unwind$set_sim_state_c2_Attitude_Control_System_of_Flying_Vehicle 0000000180012038     c2_Attitude_Control_System_of_Flying_Vehicle.obj
 0002:00001040       $unwind$sf_gateway_c2_Attitude_Control_System_of_Flying_Vehicle 0000000180012040     c2_Attitude_Control_System_of_Flying_Vehicle.obj
 0002:00001050       $unwind$c2_sf_marshallOut  0000000180012050     c2_Attitude_Control_System_of_Flying_Vehicle.obj
 0002:00001058       $unwind$c2_emlrt_marshallIn 0000000180012058     c2_Attitude_Control_System_of_Flying_Vehicle.obj
 0002:00001060       $unwind$c2_b_emlrt_marshallIn 0000000180012060     c2_Attitude_Control_System_of_Flying_Vehicle.obj
 0002:00001068       $unwind$c2_sf_marshallIn   0000000180012068     c2_Attitude_Control_System_of_Flying_Vehicle.obj
 0002:00001070       $unwind$c2_b_sf_marshallOut 0000000180012070     c2_Attitude_Control_System_of_Flying_Vehicle.obj
 0002:00001080       $unwind$c2_c_emlrt_marshallIn 0000000180012080     c2_Attitude_Control_System_of_Flying_Vehicle.obj
 0002:00001090       $unwind$c2_b_sf_marshallIn 0000000180012090     c2_Attitude_Control_System_of_Flying_Vehicle.obj
 0002:000010a0       $unwind$c2_c_sf_marshallOut 00000001800120a0     c2_Attitude_Control_System_of_Flying_Vehicle.obj
 0002:000010b0       $unwind$c2_d_emlrt_marshallIn 00000001800120b0     c2_Attitude_Control_System_of_Flying_Vehicle.obj
 0002:000010c0       $unwind$c2_c_sf_marshallIn 00000001800120c0     c2_Attitude_Control_System_of_Flying_Vehicle.obj
 0002:000010d0       $unwind$c2_f_emlrt_marshallIn 00000001800120d0     c2_Attitude_Control_System_of_Flying_Vehicle.obj
 0002:000010d8       $unwind$c2_g_emlrt_marshallIn 00000001800120d8     c2_Attitude_Control_System_of_Flying_Vehicle.obj
 0002:000010e0       $unwind$init_simulink_io_address 00000001800120e0     c2_Attitude_Control_System_of_Flying_Vehicle.obj
 0002:000010e8       $unwind$sf_c2_Attitude_Control_System_of_Flying_Vehicle_get_post_codegen_info 00000001800120e8     c2_Attitude_Control_System_of_Flying_Vehicle.obj
 0002:000010f0       $unwind$sf_c2_Attitude_Control_System_of_Flying_Vehicle_get_autoinheritance_info 00000001800120f0     c2_Attitude_Control_System_of_Flying_Vehicle.obj
 0002:00001100       $unwind$sf_c2_Attitude_Control_System_of_Flying_Vehicle_third_party_uses_info 0000000180012100     c2_Attitude_Control_System_of_Flying_Vehicle.obj
 0002:00001108       $unwind$sf_c2_Attitude_Control_System_of_Flying_Vehicle_jit_fallback_info 0000000180012108     c2_Attitude_Control_System_of_Flying_Vehicle.obj
 0002:00001118       $unwind$sf_c2_Attitude_Control_System_of_Flying_Vehicle_updateBuildInfo_args_info 0000000180012118     c2_Attitude_Control_System_of_Flying_Vehicle.obj
 0002:00001120       $unwind$sf_get_sim_state_info_c2_Attitude_Control_System_of_Flying_Vehicle 0000000180012120     c2_Attitude_Control_System_of_Flying_Vehicle.obj
 0002:00001128       $unwind$sf_opaque_initialize_c2_Attitude_Control_System_of_Flying_Vehicle 0000000180012128     c2_Attitude_Control_System_of_Flying_Vehicle.obj
 0002:00001130       $unwind$sf_opaque_enable_c2_Attitude_Control_System_of_Flying_Vehicle 0000000180012130     c2_Attitude_Control_System_of_Flying_Vehicle.obj
 0002:00001138       $unwind$sf_opaque_disable_c2_Attitude_Control_System_of_Flying_Vehicle 0000000180012138     c2_Attitude_Control_System_of_Flying_Vehicle.obj
 0002:00001140       $unwind$sf_opaque_gateway_c2_Attitude_Control_System_of_Flying_Vehicle 0000000180012140     c2_Attitude_Control_System_of_Flying_Vehicle.obj
 0002:00001148       $unwind$sf_opaque_get_sim_state_c2_Attitude_Control_System_of_Flying_Vehicle 0000000180012148     c2_Attitude_Control_System_of_Flying_Vehicle.obj
 0002:00001150       $unwind$sf_opaque_set_sim_state_c2_Attitude_Control_System_of_Flying_Vehicle 0000000180012150     c2_Attitude_Control_System_of_Flying_Vehicle.obj
 0002:00001158       $unwind$sf_opaque_terminate_c2_Attitude_Control_System_of_Flying_Vehicle 0000000180012158     c2_Attitude_Control_System_of_Flying_Vehicle.obj
 0002:00001160       $unwind$mdlProcessParameters_c2_Attitude_Control_System_of_Flying_Vehicle 0000000180012160     c2_Attitude_Control_System_of_Flying_Vehicle.obj
 0002:00001168       $unwind$mdlSetWorkWidths_c2_Attitude_Control_System_of_Flying_Vehicle 0000000180012168     c2_Attitude_Control_System_of_Flying_Vehicle.obj
 0002:00001170       $unwind$mdlRTW_c2_Attitude_Control_System_of_Flying_Vehicle 0000000180012170     c2_Attitude_Control_System_of_Flying_Vehicle.obj
 0002:00001178       $unwind$mdlStart_c2_Attitude_Control_System_of_Flying_Vehicle 0000000180012178     c2_Attitude_Control_System_of_Flying_Vehicle.obj
 0002:00001180       $unwind$mexFunction        0000000180012180     Attitude_Control_System_of_Flying_Vehicle_sfun_registry.obj
 0002:00001188       $unwind$_ssSetInputPortDirectFeedThroughFcn 0000000180012188     Attitude_Control_System_of_Flying_Vehicle_sfun_registry.obj
 0002:00001190       $unwind$_ssGetInputPortSignalPtrsFcn 0000000180012190     Attitude_Control_System_of_Flying_Vehicle_sfun_registry.obj
 0002:00001198       $unwind$_ssGetInputPortSignalFcn 0000000180012198     Attitude_Control_System_of_Flying_Vehicle_sfun_registry.obj
 0002:000011a0       $unwind$_ssSetInputPortReusableFcn 00000001800121a0     Attitude_Control_System_of_Flying_Vehicle_sfun_registry.obj
 0002:000011b0       $unwind$_ssSetOutputPortReusableFcn 00000001800121b0     Attitude_Control_System_of_Flying_Vehicle_sfun_registry.obj
 0002:000011c0       $unwind$_ssSetSymbolicDimsSupport 00000001800121c0     Attitude_Control_System_of_Flying_Vehicle_sfun_registry.obj
 0002:000011c8       $unwind$_ssRegisterSymbolicDimsExpr 00000001800121c8     Attitude_Control_System_of_Flying_Vehicle_sfun_registry.obj
 0002:000011d0       $unwind$_ssRegisterSymbolicDims 00000001800121d0     Attitude_Control_System_of_Flying_Vehicle_sfun_registry.obj
 0002:000011d8       $unwind$_ssRegisterSymbolicDimsString 00000001800121d8     Attitude_Control_System_of_Flying_Vehicle_sfun_registry.obj
 0002:000011e0       $unwind$_ssRegisterSymbolicDimsIntValue 00000001800121e0     Attitude_Control_System_of_Flying_Vehicle_sfun_registry.obj
 0002:000011e8       $unwind$_ssRegisterSymbolicDimsPlus 00000001800121e8     Attitude_Control_System_of_Flying_Vehicle_sfun_registry.obj
 0002:000011f0       $unwind$_ssRegisterSymbolicDimsMinus 00000001800121f0     Attitude_Control_System_of_Flying_Vehicle_sfun_registry.obj
 0002:000011f8       $unwind$_ssRegisterSymbolicDimsMultiply 00000001800121f8     Attitude_Control_System_of_Flying_Vehicle_sfun_registry.obj
 0002:00001200       $unwind$_ssRegisterSymbolicDimsDivide 0000000180012200     Attitude_Control_System_of_Flying_Vehicle_sfun_registry.obj
 0002:00001208       $unwind$_ssGetNumSymbolicDims 0000000180012208     Attitude_Control_System_of_Flying_Vehicle_sfun_registry.obj
 0002:00001210       $unwind$_ssGetSymbolicDim  0000000180012210     Attitude_Control_System_of_Flying_Vehicle_sfun_registry.obj
 0002:00001218       $unwind$_ssSetInputPortSymbolicDimsId 0000000180012218     Attitude_Control_System_of_Flying_Vehicle_sfun_registry.obj
 0002:00001220       $unwind$_ssGetCompInputPortSymbolicDimsId 0000000180012220     Attitude_Control_System_of_Flying_Vehicle_sfun_registry.obj
 0002:00001228       $unwind$_ssSetCompInputPortSymbolicDimsId 0000000180012228     Attitude_Control_System_of_Flying_Vehicle_sfun_registry.obj
 0002:00001230       $unwind$_ssSetOutputPortSymbolicDimsId 0000000180012230     Attitude_Control_System_of_Flying_Vehicle_sfun_registry.obj
 0002:00001238       $unwind$_ssGetCompOutputPortSymbolicDimsId 0000000180012238     Attitude_Control_System_of_Flying_Vehicle_sfun_registry.obj
 0002:00001240       $unwind$_ssSetCompOutputPortSymbolicDimsId 0000000180012240     Attitude_Control_System_of_Flying_Vehicle_sfun_registry.obj
 0002:00001248       $unwind$_ssSetCompDWorkSymbolicDimsId 0000000180012248     Attitude_Control_System_of_Flying_Vehicle_sfun_registry.obj
 0002:00001250       $unwind$ssGetIsZeroCrossControlDisabled 0000000180012250     Attitude_Control_System_of_Flying_Vehicle_sfun_registry.obj
 0002:00001258       $unwind$ssSetIsInputPortUsedForContZcSignal 0000000180012258     Attitude_Control_System_of_Flying_Vehicle_sfun_registry.obj
 0002:00001260       $unwind$ssSetZcSignalIsZcElementDisc 0000000180012260     Attitude_Control_System_of_Flying_Vehicle_sfun_registry.obj
 0002:00001270       $unwind$ssSetZcSignalName  0000000180012270     Attitude_Control_System_of_Flying_Vehicle_sfun_registry.obj
 0002:00001278       $unwind$ssSetZcSignalWidth 0000000180012278     Attitude_Control_System_of_Flying_Vehicle_sfun_registry.obj
 0002:00001280       $unwind$ssSetZcSignalZcEventType 0000000180012280     Attitude_Control_System_of_Flying_Vehicle_sfun_registry.obj
 0002:00001288       $unwind$ssSetZcSignalType  0000000180012288     Attitude_Control_System_of_Flying_Vehicle_sfun_registry.obj
 0002:00001290       $unwind$ssSetZcSignalZcTol 0000000180012290     Attitude_Control_System_of_Flying_Vehicle_sfun_registry.obj
 0002:00001298       $unwind$ssSetZcSignalNeedsEventNotification 0000000180012298     Attitude_Control_System_of_Flying_Vehicle_sfun_registry.obj
 0002:000012a0       $unwind$ssCreateAndAddZcSignalInfo 00000001800122a0     Attitude_Control_System_of_Flying_Vehicle_sfun_registry.obj
 0002:000012a8       $unwind$ssCloneAndAddZcSignalInfo 00000001800122a8     Attitude_Control_System_of_Flying_Vehicle_sfun_registry.obj
 0002:000012b0       $unwind$ssGetNumZcSignals  00000001800122b0     Attitude_Control_System_of_Flying_Vehicle_sfun_registry.obj
 0002:000012b8       $unwind$ssGetZcSignalVector 00000001800122b8     Attitude_Control_System_of_Flying_Vehicle_sfun_registry.obj
 0002:000012c0       $unwind$ssGetZcSignalName  00000001800122c0     Attitude_Control_System_of_Flying_Vehicle_sfun_registry.obj
 0002:000012c8       $unwind$ssGetZcSignalWidth 00000001800122c8     Attitude_Control_System_of_Flying_Vehicle_sfun_registry.obj
 0002:000012d0       $unwind$ssGetZcSignalZcEventType 00000001800122d0     Attitude_Control_System_of_Flying_Vehicle_sfun_registry.obj
 0002:000012d8       $unwind$ssGetZcSignalZcEvents 00000001800122d8     Attitude_Control_System_of_Flying_Vehicle_sfun_registry.obj
 0002:000012e0       $unwind$ssGetZcSignalType  00000001800122e0     Attitude_Control_System_of_Flying_Vehicle_sfun_registry.obj
 0002:000012e8       $unwind$ssGetZcSignalZcTol 00000001800122e8     Attitude_Control_System_of_Flying_Vehicle_sfun_registry.obj
 0002:000012f0       $unwind$ssGetZcSignalNeedsEventNotification 00000001800122f0     Attitude_Control_System_of_Flying_Vehicle_sfun_registry.obj
 0002:000012f8       $unwind$ssGetZcSignalIsZcElementDisc 00000001800122f8     Attitude_Control_System_of_Flying_Vehicle_sfun_registry.obj
 0002:00001308       $unwind$ssGetIsInputPortElementContinuous 0000000180012308     Attitude_Control_System_of_Flying_Vehicle_sfun_registry.obj
 0002:00001318       $unwind$ssGetDTypeIdFromMxArray 0000000180012318     Attitude_Control_System_of_Flying_Vehicle_sfun_registry.obj
 0002:00001320       $unwind$ssWriteRTWStr      0000000180012320     Attitude_Control_System_of_Flying_Vehicle_sfun_registry.obj
 0002:00001328       $unwind$ssWriteRTWNameValuePair 0000000180012328     Attitude_Control_System_of_Flying_Vehicle_sfun_registry.obj
 0002:00001330       $unwind$ssWriteRTWParamSettings 0000000180012330     Attitude_Control_System_of_Flying_Vehicle_sfun_registry.obj
 0002:00001338       $unwind$ssWriteRTWParameters 0000000180012338     Attitude_Control_System_of_Flying_Vehicle_sfun_registry.obj
 0002:00001340       $unwind$ssWriteRTWWorkVect 0000000180012340     Attitude_Control_System_of_Flying_Vehicle_sfun_registry.obj
 0002:00001354       $unwind$ssWriteRTWMxVectParam 0000000180012354     Attitude_Control_System_of_Flying_Vehicle_sfun_registry.obj
 0002:0000135c       $unwind$ssWriteRTWMx2dMatParam 000000018001235c     Attitude_Control_System_of_Flying_Vehicle_sfun_registry.obj
 0002:00001364       $unwind$_ssSetInputPortMatrixDimensions 0000000180012364     Attitude_Control_System_of_Flying_Vehicle_sfun_registry.obj
 0002:00001370       $unwind$_ssSetOutputPortMatrixDimensions 0000000180012370     Attitude_Control_System_of_Flying_Vehicle_sfun_registry.obj
 0002:0000137c       $unwind$_ssSetInputPortVectorDimension 000000018001237c     Attitude_Control_System_of_Flying_Vehicle_sfun_registry.obj
 0002:00001388       $unwind$_ssSetOutputPortVectorDimension 0000000180012388     Attitude_Control_System_of_Flying_Vehicle_sfun_registry.obj
 0002:00001394       $unwind$ssIsRunTimeParamTunable 0000000180012394     Attitude_Control_System_of_Flying_Vehicle_sfun_registry.obj
 0002:0000139c       $unwind$ssGetSFuncBlockHandle 000000018001239c     Attitude_Control_System_of_Flying_Vehicle_sfun_registry.obj
 0002:000013a4       $unwind$_ssGetCurrentInputPortWidth 00000001800123a4     Attitude_Control_System_of_Flying_Vehicle_sfun_registry.obj
 0002:000013ac       $unwind$_ssGetCurrentOutputPortWidth 00000001800123ac     Attitude_Control_System_of_Flying_Vehicle_sfun_registry.obj
 0002:000013b4       $unwind$_ssGetCallSystemNumFcnCallDestinations 00000001800123b4     Attitude_Control_System_of_Flying_Vehicle_sfun_registry.obj
 0002:000013bc       $unwind$ssGetParameterTuningCompliance 00000001800123bc     Attitude_Control_System_of_Flying_Vehicle_sfun_registry.obj
 0002:000013c4       $unwind$ssWarning          00000001800123c4     Attitude_Control_System_of_Flying_Vehicle_sfun_registry.obj
 0002:000013d8       $unwind$_ssGetAbsTol       00000001800123d8     Attitude_Control_System_of_Flying_Vehicle_sfun_registry.obj
 0002:000013e0       $unwind$sf_process_check_sum_call 00000001800123e0     Attitude_Control_System_of_Flying_Vehicle_sfun_registry.obj
 0002:000013e8       $unwind$sf_process_autoinheritance_call 00000001800123e8     Attitude_Control_System_of_Flying_Vehicle_sfun_registry.obj
 0002:000013f8       $unwind$sf_process_get_third_party_uses_info_call 00000001800123f8     Attitude_Control_System_of_Flying_Vehicle_sfun_registry.obj
 0002:00001408       $unwind$sf_process_get_jit_fallback_info_call 0000000180012408     Attitude_Control_System_of_Flying_Vehicle_sfun_registry.obj
 0002:00001418       $unwind$sf_process_get_updateBuildInfo_args_info_call 0000000180012418     Attitude_Control_System_of_Flying_Vehicle_sfun_registry.obj
 0002:00001428       $unwind$sf_process_get_eml_resolved_functions_info_call 0000000180012428     Attitude_Control_System_of_Flying_Vehicle_sfun_registry.obj
 0002:00001438       $unwind$sf_mex_unlock_call 0000000180012438     Attitude_Control_System_of_Flying_Vehicle_sfun_registry.obj
 0002:00001448       $unwind$sf_debug_api_wrapper 0000000180012448     Attitude_Control_System_of_Flying_Vehicle_sfun_registry.obj
 0002:00001450       $unwind$ProcessMexSfunctionCmdLineCall 0000000180012450     Attitude_Control_System_of_Flying_Vehicle_sfun_registry.obj
 0002:00001458       $unwind$sf_machine_global_initializer_called 0000000180012458     Attitude_Control_System_of_Flying_Vehicle_sfun_registry.obj
 0002:00001460       $unwind$sf_machine_global_method_dispatcher 0000000180012460     Attitude_Control_System_of_Flying_Vehicle_sfun_registry.obj
 0002:00001468       $unwind$sf_machine_global_terminator 0000000180012468     Attitude_Control_System_of_Flying_Vehicle_sfun_registry.obj
 0002:00001470       $unwind$sf_register_machine_exported_symbols 0000000180012470     Attitude_Control_System_of_Flying_Vehicle_sfun_registry.obj
 0002:00001478       $unwind$sf_machine_global_initializer 0000000180012478     Attitude_Control_System_of_Flying_Vehicle_sfun_registry.obj
 0002:00001480       $unwind$mdlGetSimState     0000000180012480     Attitude_Control_System_of_Flying_Vehicle_sfun_registry.obj
 0002:00001488       $unwind$mdlSetSimState     0000000180012488     Attitude_Control_System_of_Flying_Vehicle_sfun_registry.obj
 0002:00001490       $unwind$mdlSetWorkWidths   0000000180012490     Attitude_Control_System_of_Flying_Vehicle_sfun_registry.obj
 0002:00001498       $unwind$mdlProcessParameters 0000000180012498     Attitude_Control_System_of_Flying_Vehicle_sfun_registry.obj
 0002:000014a0       $unwind$mdl_start_processing 00000001800124a0     Attitude_Control_System_of_Flying_Vehicle_sfun_registry.obj
 0002:000014a8       $unwind$mdl_terminate_processing 00000001800124a8     Attitude_Control_System_of_Flying_Vehicle_sfun_registry.obj
 0002:000014b0       $unwind$mdlStart           00000001800124b0     Attitude_Control_System_of_Flying_Vehicle_sfun_registry.obj
 0002:000014b8       $unwind$mdlTerminate       00000001800124b8     Attitude_Control_System_of_Flying_Vehicle_sfun_registry.obj
 0002:000014c0       $unwind$mdlInitializeSizes 00000001800124c0     Attitude_Control_System_of_Flying_Vehicle_sfun_registry.obj
 0002:000014c8       $unwind$mdlInitializeSampleTimes 00000001800124c8     Attitude_Control_System_of_Flying_Vehicle_sfun_registry.obj
 0002:000014d0       $unwind$mdl_outputs_continuous_legacy 00000001800124d0     Attitude_Control_System_of_Flying_Vehicle_sfun_registry.obj
 0002:000014d8       $unwind$mdl_outputs_processing 00000001800124d8     Attitude_Control_System_of_Flying_Vehicle_sfun_registry.obj
 0002:000014e0       $unwind$mdl_zeroCrossings_processing 00000001800124e0     Attitude_Control_System_of_Flying_Vehicle_sfun_registry.obj
 0002:000014e8       $unwind$mdlZeroCrossings   00000001800124e8     Attitude_Control_System_of_Flying_Vehicle_sfun_registry.obj
 0002:000014f0       $unwind$mdl_derivatives_processing 00000001800124f0     Attitude_Control_System_of_Flying_Vehicle_sfun_registry.obj
 0002:000014f8       $unwind$mdlDerivatives     00000001800124f8     Attitude_Control_System_of_Flying_Vehicle_sfun_registry.obj
 0002:00001500       $unwind$mdl_initialize_conditions_processing 0000000180012500     Attitude_Control_System_of_Flying_Vehicle_sfun_registry.obj
 0002:00001508       $unwind$mdlInitializeConditions 0000000180012508     Attitude_Control_System_of_Flying_Vehicle_sfun_registry.obj
 0002:00001510       $unwind$mdl_ext_mode_exec_processing 0000000180012510     Attitude_Control_System_of_Flying_Vehicle_sfun_registry.obj
 0002:00001518       $unwind$mdlExtModeExec     0000000180012518     Attitude_Control_System_of_Flying_Vehicle_sfun_registry.obj
 0002:00001520       $unwind$mdlRTW             0000000180012520     Attitude_Control_System_of_Flying_Vehicle_sfun_registry.obj
 0002:00001528       $unwind$mdl_enable_processing 0000000180012528     Attitude_Control_System_of_Flying_Vehicle_sfun_registry.obj
 0002:00001530       $unwind$mdlEnable          0000000180012530     Attitude_Control_System_of_Flying_Vehicle_sfun_registry.obj
 0002:00001538       $unwind$mdl_disable_processing 0000000180012538     Attitude_Control_System_of_Flying_Vehicle_sfun_registry.obj
 0002:00001540       $unwind$mdlDisable         0000000180012540     Attitude_Control_System_of_Flying_Vehicle_sfun_registry.obj
 0002:00001548       $unwind$mdlOutputs         0000000180012548     Attitude_Control_System_of_Flying_Vehicle_sfun_registry.obj
 0002:00001550       $unwind$mdl_update_processing 0000000180012550     Attitude_Control_System_of_Flying_Vehicle_sfun_registry.obj
 0002:00001558       $unwind$mdlUpdate          0000000180012558     Attitude_Control_System_of_Flying_Vehicle_sfun_registry.obj
 0002:00001560       $unwind$ProcessMexSfunctionEveryCall 0000000180012560     Attitude_Control_System_of_Flying_Vehicle_sfun_registry.obj
 0002:00001568       $unwind$_RegNumInputPortsCB 0000000180012568     Attitude_Control_System_of_Flying_Vehicle_sfun_registry.obj
 0002:00001570       $unwind$_RegNumOutputPortsCB 0000000180012570     Attitude_Control_System_of_Flying_Vehicle_sfun_registry.obj
 0002:00001578       $unwind$_CreateSimStruct   0000000180012578     Attitude_Control_System_of_Flying_Vehicle_sfun_registry.obj
 0002:00001580       $unwind$_ssFatalError      0000000180012580     Attitude_Control_System_of_Flying_Vehicle_sfun_registry.obj
 0002:00001590       $unwind$_ProcessMexSfunctionCmdLineCall 0000000180012590     Attitude_Control_System_of_Flying_Vehicle_sfun_registry.obj
 0002:000015a0       $unwind$_vsnprintf_l       00000001800125a0     Attitude_Control_System_of_Flying_Vehicle_sfun_registry.obj
 0002:000015a8       $unwind$_vsprintf_l        00000001800125a8     Attitude_Control_System_of_Flying_Vehicle_sfun_registry.obj
 0002:000015b0       $unwind$sprintf            00000001800125b0     Attitude_Control_System_of_Flying_Vehicle_sfun_registry.obj
 0002:000015b8       $unwind$__report_securityfailure 00000001800125b8     MSVCRT:gs_report.obj
 0002:000015c0       $unwind$__report_securityfailureEx 00000001800125c0     MSVCRT:gs_report.obj
 0002:000015c8       $unwind$__report_rangecheckfailure 00000001800125c8     MSVCRT:gs_report.obj
 0002:000015d0       $unwind$__report_gsfailure 00000001800125d0     MSVCRT:gs_report.obj
 0002:000015d8       $unwind$capture_current_context 00000001800125d8     MSVCRT:gs_report.obj
 0002:000015e4       $unwind$capture_previous_context 00000001800125e4     MSVCRT:gs_report.obj
 0002:000015f0       $unwind$__raise_securityfailure 00000001800125f0     MSVCRT:gs_report.obj
 0002:000015f8       $unwind$__GSHandlerCheckCommon 00000001800125f8     MSVCRT:_gshandler_.obj
 0002:00001600       $unwind$__GSHandlerCheck   0000000180012600     MSVCRT:_gshandler_.obj
 0002:00001608       $xdatasym                  0000000180012608     MSVCRT:_amdsecgs_.obj
 0002:0000160c       $unwind$?dllmain_crt_process_attach@@YAHQEAUHINSTANCE__@@QEAX@Z 000000018001260c     MSVCRT:dll_dllmain.obj
 0002:00001638       $unwind$?fin$0@?0??dllmain_crt_process_attach@@YAHQEAUHINSTANCE__@@QEAX@Z@4HA 0000000180012638     MSVCRT:dll_dllmain.obj
 0002:00001640       $unwind$?dllmain_crt_process_detach@@YAH_N@Z 0000000180012640     MSVCRT:dll_dllmain.obj
 0002:00001668       $unwind$?fin$0@?0??dllmain_crt_process_detach@@YAH_N@Z@4HA 0000000180012668     MSVCRT:dll_dllmain.obj
 0002:00001670       $unwind$?dllmain_crt_dispatch@@YAHQEAUHINSTANCE__@@KQEAX@Z 0000000180012670     MSVCRT:dll_dllmain.obj
 0002:00001678       $unwind$?dllmain_raw@@YAHQEAUHINSTANCE__@@KQEAX@Z 0000000180012678     MSVCRT:dll_dllmain.obj
 0002:0000168c       $unwind$?dllmain_dispatch@@YAHQEAUHINSTANCE__@@KQEAX@Z 000000018001268c     MSVCRT:dll_dllmain.obj
 0002:000016b4       $unwind$?filt$0@?0??dllmain_dispatch@@YAHQEAUHINSTANCE__@@KQEAX@Z@4HA 00000001800126b4     MSVCRT:dll_dllmain.obj
 0002:000016bc       $unwind$_DllMainCRTStartup 00000001800126bc     MSVCRT:dll_dllmain.obj
 0002:000016cc       $unwind$atexit             00000001800126cc     MSVCRT:utility.obj
 0002:000016d4       $unwind$_onexit            00000001800126d4     MSVCRT:utility.obj
 0002:000016dc       $unwind$__scrt_is_nonwritable_in_current_image 00000001800126dc     MSVCRT:utility.obj
 0002:000016fc       $unwind$__scrt_is_nonwritable_in_current_image$filt$0 00000001800126fc     MSVCRT:utility.obj
 0002:00001704       $unwind$__scrt_acquire_startup_lock 0000000180012704     MSVCRT:utility.obj
 0002:0000170c       $unwind$__scrt_release_startup_lock 000000018001270c     MSVCRT:utility.obj
 0002:00001714       $unwind$__scrt_initialize_crt 0000000180012714     MSVCRT:utility.obj
 0002:0000171c       $unwind$__scrt_uninitialize_crt 000000018001271c     MSVCRT:utility.obj
 0002:00001724       $unwind$__scrt_initialize_onexit_tables 0000000180012724     MSVCRT:utility.obj
 0002:00001730       $unwind$__scrt_dllmain_exception_filter 0000000180012730     MSVCRT:utility.obj
 0002:00001744       $unwind$__scrt_dllmain_before_initialize_c 0000000180012744     MSVCRT:utility.obj
 0002:0000174c       $unwind$__scrt_dllmain_after_initialize_c 000000018001274c     MSVCRT:utility.obj
 0002:00001754       $unwind$__scrt_dllmain_uninitialize_c 0000000180012754     MSVCRT:utility.obj
 0002:0000175c       $unwind$__scrt_dllmain_uninitialize_critical 000000018001275c     MSVCRT:utility.obj
 0002:00001764       $unwind$__scrt_dllmain_crt_thread_attach 0000000180012764     MSVCRT:utility.obj
 0002:0000176c       $unwind$__scrt_dllmain_crt_thread_detach 000000018001276c     MSVCRT:utility.obj
 0002:00001774       $unwind$__security_init_cookie 0000000180012774     MSVCRT:gs_support.obj
 0002:00001780       $unwind$DllMain            0000000180012780     MSVCRT:dll_dllmain_stub.obj
 0002:00001788       $unwind$__scrt_initialize_default_local_stdio_options 0000000180012788     MSVCRT:default_local_stdio_options.obj
 0002:00001790       $unwind$__scrt_get_show_window_mode 0000000180012790     MSVCRT:utility_desktop.obj
 0002:00001798       $unwind$__scrt_is_managed_app 0000000180012798     MSVCRT:utility_desktop.obj
 0002:000017a0       $unwind$__scrt_fastfail    00000001800127a0     MSVCRT:utility_desktop.obj
 0002:000017b0       $unwind$__scrt_unhandled_exception_filter 00000001800127b0     MSVCRT:utility_desktop.obj
 0002:000017b8       $unwind$_RTC_Initialize    00000001800127b8     MSVCRT:_initsect_.obj
 0002:000017c8       $unwind$_RTC_Terminate     00000001800127c8     MSVCRT:_initsect_.obj
 0002:000017d8       $unwind$__isa_available_init 00000001800127d8     MSVCRT:_cpu_disp_.obj
 0002:000017e8       $xdatasym                  00000001800127e8     MSVCRT:_guard_dispatch_.obj
 0002:000017f0       .edata                     00000001800127f0     Attitude_Control_System_of_Flying_Vehicle_sfun.exp
 0002:00001818       rgpv                       0000000180012818     Attitude_Control_System_of_Flying_Vehicle_sfun.exp
 0002:0000181c       rgszName                   000000018001281c     Attitude_Control_System_of_Flying_Vehicle_sfun.exp
 0002:00001820       rgwOrd                     0000000180012820     Attitude_Control_System_of_Flying_Vehicle_sfun.exp
 0002:00001822       szName                     0000000180012822     Attitude_Control_System_of_Flying_Vehicle_sfun.exp
 0002:00001858       $N00001                    0000000180012858     Attitude_Control_System_of_Flying_Vehicle_sfun.exp
 0002:000025d4       .idata$6                   00000001800135d4     sf_runtime:sf_runtime.dll
 0002:0000274c       .idata$6                   000000018001374c     libmx:libmx.dll
 0002:000027ce       .idata$6                   00000001800137ce     libmex:libmex.dll
 0002:000027f0       .idata$6                   00000001800137f0     libut:libut.dll
 0002:00002836       .idata$6                   0000000180013836     libmwmathutil:libmwmathutil.dll
 0002:000029d4       .idata$6                   00000001800139d4     kernel32:KERNEL32.dll
 0002:00002a72       .idata$6                   0000000180013a72     vcruntime:VCRUNTIME140.dll
 0002:00002ba6       .idata$6                   0000000180013ba6     ucrt:api-ms-win-crt-string-l1-1-0.dll
 0002:00002bc8       .idata$6                   0000000180013bc8     ucrt:api-ms-win-crt-heap-l1-1-0.dll
 0002:00002be8       .idata$6                   0000000180013be8     ucrt:api-ms-win-crt-stdio-l1-1-0.dll
 0002:00002c08       .idata$6                   0000000180013c08     ucrt:api-ms-win-crt-runtime-l1-1-0.dll
 0003:00000000       $SG19063                   0000000180014000     Attitude_Control_System_of_Flying_Vehicle_sfun.obj
 0003:00000018       $SG19068                   0000000180014018     Attitude_Control_System_of_Flying_Vehicle_sfun.obj
 0003:00000020       $SG19071                   0000000180014020     Attitude_Control_System_of_Flying_Vehicle_sfun.obj
 0003:00000028       $SG19076                   0000000180014028     Attitude_Control_System_of_Flying_Vehicle_sfun.obj
 0003:00000030       $SG19104                   0000000180014030     Attitude_Control_System_of_Flying_Vehicle_sfun.obj
 0003:00000050       $SG19107                   0000000180014050     Attitude_Control_System_of_Flying_Vehicle_sfun.obj
 0003:00000068       $SG19134                   0000000180014068     Attitude_Control_System_of_Flying_Vehicle_sfun.obj
 0003:00000088       $SG19164                   0000000180014088     Attitude_Control_System_of_Flying_Vehicle_sfun.obj
 0003:000000a8       $SG19167                   00000001800140a8     Attitude_Control_System_of_Flying_Vehicle_sfun.obj
 0003:000000c0       $SG19196                   00000001800140c0     Attitude_Control_System_of_Flying_Vehicle_sfun.obj
 0003:000000d8       $SG19199                   00000001800140d8     Attitude_Control_System_of_Flying_Vehicle_sfun.obj
 0003:000000f0       $SG19228                   00000001800140f0     Attitude_Control_System_of_Flying_Vehicle_sfun.obj
 0003:00000110       $SG19231                   0000000180014110     Attitude_Control_System_of_Flying_Vehicle_sfun.obj
 0003:00000128       $SG19237                   0000000180014128     Attitude_Control_System_of_Flying_Vehicle_sfun.obj
 0003:00000130       $SG19238                   0000000180014130     Attitude_Control_System_of_Flying_Vehicle_sfun.obj
 0003:00000160       $SG19263                   0000000180014160     Attitude_Control_System_of_Flying_Vehicle_sfun.obj
 0003:00000190       $SG19264                   0000000180014190     Attitude_Control_System_of_Flying_Vehicle_sfun.obj
 0003:000001c0       $SG19459                   00000001800141c0     c2_Attitude_Control_System_of_Flying_Vehicle.obj
 0003:000001c4       $SG19520                   00000001800141c4     c2_Attitude_Control_System_of_Flying_Vehicle.obj
 0003:000001c8       $SG19568                   00000001800141c8     c2_Attitude_Control_System_of_Flying_Vehicle.obj
 0003:000001d8       $SG19584                   00000001800141d8     c2_Attitude_Control_System_of_Flying_Vehicle.obj
 0003:000001dc       $SG19710                   00000001800141dc     c2_Attitude_Control_System_of_Flying_Vehicle.obj
 0003:000001e4       $SG19859                   00000001800141e4     c2_Attitude_Control_System_of_Flying_Vehicle.obj
 0003:000001e8       $SG19708                   00000001800141e8     c2_Attitude_Control_System_of_Flying_Vehicle.obj
 0003:000001f4       $SG19711                   00000001800141f4     c2_Attitude_Control_System_of_Flying_Vehicle.obj
 0003:000001fc       $SG19003                   00000001800141fc     c2_Attitude_Control_System_of_Flying_Vehicle.obj
 0003:00000200       $SG19709                   0000000180014200     c2_Attitude_Control_System_of_Flying_Vehicle.obj
 0003:0000020c       $SG19716                   000000018001420c     c2_Attitude_Control_System_of_Flying_Vehicle.obj
 0003:00000214       $SG19215                   0000000180014214     c2_Attitude_Control_System_of_Flying_Vehicle.obj
 0003:00000218       $SG19712                   0000000180014218     c2_Attitude_Control_System_of_Flying_Vehicle.obj
 0003:00000224       $SG19216                   0000000180014224     c2_Attitude_Control_System_of_Flying_Vehicle.obj
 0003:00000228       $SG19713                   0000000180014228     c2_Attitude_Control_System_of_Flying_Vehicle.obj
 0003:00000234       $SG19217                   0000000180014234     c2_Attitude_Control_System_of_Flying_Vehicle.obj
 0003:00000238       $SG19714                   0000000180014238     c2_Attitude_Control_System_of_Flying_Vehicle.obj
 0003:00000240       $SG19715                   0000000180014240     c2_Attitude_Control_System_of_Flying_Vehicle.obj
 0003:00000248       $SG19717                   0000000180014248     c2_Attitude_Control_System_of_Flying_Vehicle.obj
 0003:00000250       $SG19718                   0000000180014250     c2_Attitude_Control_System_of_Flying_Vehicle.obj
 0003:00000260       $SG19719                   0000000180014260     c2_Attitude_Control_System_of_Flying_Vehicle.obj
 0003:00000270       $SG19720                   0000000180014270     c2_Attitude_Control_System_of_Flying_Vehicle.obj
 0003:00000288       $SG19721                   0000000180014288     c2_Attitude_Control_System_of_Flying_Vehicle.obj
 0003:00000294       $SG19722                   0000000180014294     c2_Attitude_Control_System_of_Flying_Vehicle.obj
 0003:0000029c       $SG19723                   000000018001429c     c2_Attitude_Control_System_of_Flying_Vehicle.obj
 0003:000002a4       $SG19724                   00000001800142a4     c2_Attitude_Control_System_of_Flying_Vehicle.obj
 0003:000002ac       $SG19725                   00000001800142ac     c2_Attitude_Control_System_of_Flying_Vehicle.obj
 0003:000002b4       $SG19731                   00000001800142b4     c2_Attitude_Control_System_of_Flying_Vehicle.obj
 0003:000002bc       $SG19788                   00000001800142bc     c2_Attitude_Control_System_of_Flying_Vehicle.obj
 0003:000002c4       $SG19218                   00000001800142c4     c2_Attitude_Control_System_of_Flying_Vehicle.obj
 0003:000002c8       $SG19726                   00000001800142c8     c2_Attitude_Control_System_of_Flying_Vehicle.obj
 0003:000002d4       $SG19402                   00000001800142d4     c2_Attitude_Control_System_of_Flying_Vehicle.obj
 0003:000002d8       $SG19727                   00000001800142d8     c2_Attitude_Control_System_of_Flying_Vehicle.obj
 0003:000002e4       $SG19728                   00000001800142e4     c2_Attitude_Control_System_of_Flying_Vehicle.obj
 0003:000002ec       $SG19729                   00000001800142ec     c2_Attitude_Control_System_of_Flying_Vehicle.obj
 0003:000002f4       $SG19730                   00000001800142f4     c2_Attitude_Control_System_of_Flying_Vehicle.obj
 0003:000002fc       $SG19732                   00000001800142fc     c2_Attitude_Control_System_of_Flying_Vehicle.obj
 0003:00000304       $SG19833                   0000000180014304     c2_Attitude_Control_System_of_Flying_Vehicle.obj
 0003:00000310       $SG19733                   0000000180014310     c2_Attitude_Control_System_of_Flying_Vehicle.obj
 0003:00000328       $SG19734                   0000000180014328     c2_Attitude_Control_System_of_Flying_Vehicle.obj
 0003:0000033c       $SG19735                   000000018001433c     c2_Attitude_Control_System_of_Flying_Vehicle.obj
 0003:00000344       $SG19736                   0000000180014344     c2_Attitude_Control_System_of_Flying_Vehicle.obj
 0003:00000350       $SG19737                   0000000180014350     c2_Attitude_Control_System_of_Flying_Vehicle.obj
 0003:00000364       $SG19738                   0000000180014364     c2_Attitude_Control_System_of_Flying_Vehicle.obj
 0003:00000370       $SG19739                   0000000180014370     c2_Attitude_Control_System_of_Flying_Vehicle.obj
 0003:0000037c       $SG19740                   000000018001437c     c2_Attitude_Control_System_of_Flying_Vehicle.obj
 0003:00000384       $SG19741                   0000000180014384     c2_Attitude_Control_System_of_Flying_Vehicle.obj
 0003:0000038c       $SG19742                   000000018001438c     c2_Attitude_Control_System_of_Flying_Vehicle.obj
 0003:00000394       $SG19743                   0000000180014394     c2_Attitude_Control_System_of_Flying_Vehicle.obj
 0003:0000039c       $SG19744                   000000018001439c     c2_Attitude_Control_System_of_Flying_Vehicle.obj
 0003:000003a8       $SG19745                   00000001800143a8     c2_Attitude_Control_System_of_Flying_Vehicle.obj
 0003:000003c0       $SG19746                   00000001800143c0     c2_Attitude_Control_System_of_Flying_Vehicle.obj
 0003:000003d4       $SG19747                   00000001800143d4     c2_Attitude_Control_System_of_Flying_Vehicle.obj
 0003:000003dc       $SG19748                   00000001800143dc     c2_Attitude_Control_System_of_Flying_Vehicle.obj
 0003:000003e8       $SG19749                   00000001800143e8     c2_Attitude_Control_System_of_Flying_Vehicle.obj
 0003:000003fc       $SG19750                   00000001800143fc     c2_Attitude_Control_System_of_Flying_Vehicle.obj
 0003:00000408       $SG19751                   0000000180014408     c2_Attitude_Control_System_of_Flying_Vehicle.obj
 0003:00000414       $SG19752                   0000000180014414     c2_Attitude_Control_System_of_Flying_Vehicle.obj
 0003:0000041c       $SG19753                   000000018001441c     c2_Attitude_Control_System_of_Flying_Vehicle.obj
 0003:00000424       $SG19754                   0000000180014424     c2_Attitude_Control_System_of_Flying_Vehicle.obj
 0003:0000042c       $SG19755                   000000018001442c     c2_Attitude_Control_System_of_Flying_Vehicle.obj
 0003:00000434       $SG19756                   0000000180014434     c2_Attitude_Control_System_of_Flying_Vehicle.obj
 0003:00000440       $SG19757                   0000000180014440     c2_Attitude_Control_System_of_Flying_Vehicle.obj
 0003:00000458       $SG19758                   0000000180014458     c2_Attitude_Control_System_of_Flying_Vehicle.obj
 0003:0000046c       $SG19759                   000000018001446c     c2_Attitude_Control_System_of_Flying_Vehicle.obj
 0003:00000474       $SG19760                   0000000180014474     c2_Attitude_Control_System_of_Flying_Vehicle.obj
 0003:00000480       $SG19761                   0000000180014480     c2_Attitude_Control_System_of_Flying_Vehicle.obj
 0003:00000494       $SG19762                   0000000180014494     c2_Attitude_Control_System_of_Flying_Vehicle.obj
 0003:000004a0       $SG19763                   00000001800144a0     c2_Attitude_Control_System_of_Flying_Vehicle.obj
 0003:000004ac       $SG19764                   00000001800144ac     c2_Attitude_Control_System_of_Flying_Vehicle.obj
 0003:000004b4       $SG19765                   00000001800144b4     c2_Attitude_Control_System_of_Flying_Vehicle.obj
 0003:000004bc       $SG19766                   00000001800144bc     c2_Attitude_Control_System_of_Flying_Vehicle.obj
 0003:000004c4       $SG19767                   00000001800144c4     c2_Attitude_Control_System_of_Flying_Vehicle.obj
 0003:000004cc       $SG19768                   00000001800144cc     c2_Attitude_Control_System_of_Flying_Vehicle.obj
 0003:000004d8       $SG19769                   00000001800144d8     c2_Attitude_Control_System_of_Flying_Vehicle.obj
 0003:000004f0       $SG19770                   00000001800144f0     c2_Attitude_Control_System_of_Flying_Vehicle.obj
 0003:00000504       $SG19771                   0000000180014504     c2_Attitude_Control_System_of_Flying_Vehicle.obj
 0003:0000050c       $SG19772                   000000018001450c     c2_Attitude_Control_System_of_Flying_Vehicle.obj
 0003:00000518       $SG19773                   0000000180014518     c2_Attitude_Control_System_of_Flying_Vehicle.obj
 0003:0000052c       $SG19774                   000000018001452c     c2_Attitude_Control_System_of_Flying_Vehicle.obj
 0003:00000538       $SG19775                   0000000180014538     c2_Attitude_Control_System_of_Flying_Vehicle.obj
 0003:00000544       $SG19776                   0000000180014544     c2_Attitude_Control_System_of_Flying_Vehicle.obj
 0003:0000054c       $SG19777                   000000018001454c     c2_Attitude_Control_System_of_Flying_Vehicle.obj
 0003:00000554       $SG19778                   0000000180014554     c2_Attitude_Control_System_of_Flying_Vehicle.obj
 0003:0000055c       $SG19779                   000000018001455c     c2_Attitude_Control_System_of_Flying_Vehicle.obj
 0003:00000564       $SG19780                   0000000180014564     c2_Attitude_Control_System_of_Flying_Vehicle.obj
 0003:00000570       $SG19781                   0000000180014570     c2_Attitude_Control_System_of_Flying_Vehicle.obj
 0003:00000588       $SG19782                   0000000180014588     c2_Attitude_Control_System_of_Flying_Vehicle.obj
 0003:0000059c       $SG19783                   000000018001459c     c2_Attitude_Control_System_of_Flying_Vehicle.obj
 0003:000005a4       $SG19784                   00000001800145a4     c2_Attitude_Control_System_of_Flying_Vehicle.obj
 0003:000005b0       $SG19785                   00000001800145b0     c2_Attitude_Control_System_of_Flying_Vehicle.obj
 0003:000005c4       $SG19786                   00000001800145c4     c2_Attitude_Control_System_of_Flying_Vehicle.obj
 0003:000005d0       $SG19787                   00000001800145d0     c2_Attitude_Control_System_of_Flying_Vehicle.obj
 0003:000005e0       $SG19789                   00000001800145e0     c2_Attitude_Control_System_of_Flying_Vehicle.obj
 0003:000005ec       $SG19790                   00000001800145ec     c2_Attitude_Control_System_of_Flying_Vehicle.obj
 0003:000005f4       $SG19791                   00000001800145f4     c2_Attitude_Control_System_of_Flying_Vehicle.obj
 0003:000005fc       $SG19792                   00000001800145fc     c2_Attitude_Control_System_of_Flying_Vehicle.obj
 0003:00000604       $SG19793                   0000000180014604     c2_Attitude_Control_System_of_Flying_Vehicle.obj
 0003:00000610       $SG19794                   0000000180014610     c2_Attitude_Control_System_of_Flying_Vehicle.obj
 0003:00000620       $SG19795                   0000000180014620     c2_Attitude_Control_System_of_Flying_Vehicle.obj
 0003:0000062c       $SG19796                   000000018001462c     c2_Attitude_Control_System_of_Flying_Vehicle.obj
 0003:00000634       $SG19797                   0000000180014634     c2_Attitude_Control_System_of_Flying_Vehicle.obj
 0003:0000063c       $SG19798                   000000018001463c     c2_Attitude_Control_System_of_Flying_Vehicle.obj
 0003:00000644       $SG19799                   0000000180014644     c2_Attitude_Control_System_of_Flying_Vehicle.obj
 0003:0000064c       $SG19800                   000000018001464c     c2_Attitude_Control_System_of_Flying_Vehicle.obj
 0003:00000658       $SG19801                   0000000180014658     c2_Attitude_Control_System_of_Flying_Vehicle.obj
 0003:00000670       $SG19802                   0000000180014670     c2_Attitude_Control_System_of_Flying_Vehicle.obj
 0003:00000684       $SG19803                   0000000180014684     c2_Attitude_Control_System_of_Flying_Vehicle.obj
 0003:0000068c       $SG19804                   000000018001468c     c2_Attitude_Control_System_of_Flying_Vehicle.obj
 0003:00000698       $SG19805                   0000000180014698     c2_Attitude_Control_System_of_Flying_Vehicle.obj
 0003:000006ac       $SG19806                   00000001800146ac     c2_Attitude_Control_System_of_Flying_Vehicle.obj
 0003:000006b8       $SG19807                   00000001800146b8     c2_Attitude_Control_System_of_Flying_Vehicle.obj
 0003:000006c4       $SG19808                   00000001800146c4     c2_Attitude_Control_System_of_Flying_Vehicle.obj
 0003:000006cc       $SG19809                   00000001800146cc     c2_Attitude_Control_System_of_Flying_Vehicle.obj
 0003:000006d4       $SG19810                   00000001800146d4     c2_Attitude_Control_System_of_Flying_Vehicle.obj
 0003:000006dc       $SG19811                   00000001800146dc     c2_Attitude_Control_System_of_Flying_Vehicle.obj
 0003:000006e4       $SG19812                   00000001800146e4     c2_Attitude_Control_System_of_Flying_Vehicle.obj
 0003:000006f0       $SG19813                   00000001800146f0     c2_Attitude_Control_System_of_Flying_Vehicle.obj
 0003:00000708       $SG19814                   0000000180014708     c2_Attitude_Control_System_of_Flying_Vehicle.obj
 0003:0000071c       $SG19815                   000000018001471c     c2_Attitude_Control_System_of_Flying_Vehicle.obj
 0003:00000724       $SG19816                   0000000180014724     c2_Attitude_Control_System_of_Flying_Vehicle.obj
 0003:00000730       $SG19817                   0000000180014730     c2_Attitude_Control_System_of_Flying_Vehicle.obj
 0003:00000744       $SG19818                   0000000180014744     c2_Attitude_Control_System_of_Flying_Vehicle.obj
 0003:00000750       $SG19819                   0000000180014750     c2_Attitude_Control_System_of_Flying_Vehicle.obj
 0003:0000075c       $SG19820                   000000018001475c     c2_Attitude_Control_System_of_Flying_Vehicle.obj
 0003:00000764       $SG19821                   0000000180014764     c2_Attitude_Control_System_of_Flying_Vehicle.obj
 0003:0000076c       $SG19822                   000000018001476c     c2_Attitude_Control_System_of_Flying_Vehicle.obj
 0003:00000774       $SG19823                   0000000180014774     c2_Attitude_Control_System_of_Flying_Vehicle.obj
 0003:0000077c       $SG19824                   000000018001477c     c2_Attitude_Control_System_of_Flying_Vehicle.obj
 0003:00000788       $SG19825                   0000000180014788     c2_Attitude_Control_System_of_Flying_Vehicle.obj
 0003:000007a0       $SG19826                   00000001800147a0     c2_Attitude_Control_System_of_Flying_Vehicle.obj
 0003:000007b4       $SG19827                   00000001800147b4     c2_Attitude_Control_System_of_Flying_Vehicle.obj
 0003:000007bc       $SG19828                   00000001800147bc     c2_Attitude_Control_System_of_Flying_Vehicle.obj
 0003:000007c8       $SG19829                   00000001800147c8     c2_Attitude_Control_System_of_Flying_Vehicle.obj
 0003:000007dc       $SG19830                   00000001800147dc     c2_Attitude_Control_System_of_Flying_Vehicle.obj
 0003:000007e8       $SG19831                   00000001800147e8     c2_Attitude_Control_System_of_Flying_Vehicle.obj
 0003:000007f8       $SG19832                   00000001800147f8     c2_Attitude_Control_System_of_Flying_Vehicle.obj
 0003:00000800       $SG19834                   0000000180014800     c2_Attitude_Control_System_of_Flying_Vehicle.obj
 0003:00000810       $SG19849                   0000000180014810     c2_Attitude_Control_System_of_Flying_Vehicle.obj
 0003:00000820       $SG19850                   0000000180014820     c2_Attitude_Control_System_of_Flying_Vehicle.obj
 0003:00000830       $SG19851                   0000000180014830     c2_Attitude_Control_System_of_Flying_Vehicle.obj
 0003:00000840       $SG19852                   0000000180014840     c2_Attitude_Control_System_of_Flying_Vehicle.obj
 0003:00000850       $SG19853                   0000000180014850     c2_Attitude_Control_System_of_Flying_Vehicle.obj
 0003:00000868       $SG19854                   0000000180014868     c2_Attitude_Control_System_of_Flying_Vehicle.obj
 0003:00000880       $SG19855                   0000000180014880     c2_Attitude_Control_System_of_Flying_Vehicle.obj
 0003:00000898       $SG19856                   0000000180014898     c2_Attitude_Control_System_of_Flying_Vehicle.obj
 0003:000008b0       $SG19857                   00000001800148b0     c2_Attitude_Control_System_of_Flying_Vehicle.obj
 0003:000008c8       $SG19858                   00000001800148c8     c2_Attitude_Control_System_of_Flying_Vehicle.obj
 0003:000008e0       $SG19860                   00000001800148e0     c2_Attitude_Control_System_of_Flying_Vehicle.obj
 0003:000008f0       $SG19861                   00000001800148f0     c2_Attitude_Control_System_of_Flying_Vehicle.obj
 0003:000008f8       $SG19876                   00000001800148f8     c2_Attitude_Control_System_of_Flying_Vehicle.obj
 0003:00000920       $SG19877                   0000000180014920     c2_Attitude_Control_System_of_Flying_Vehicle.obj
 0003:00000948       $SG19878                   0000000180014948     c2_Attitude_Control_System_of_Flying_Vehicle.obj
 0003:00000968       $SG19879                   0000000180014968     c2_Attitude_Control_System_of_Flying_Vehicle.obj
 0003:00000988       $SG19881                   0000000180014988     c2_Attitude_Control_System_of_Flying_Vehicle.obj
 0003:000009b0       $SG19882                   00000001800149b0     c2_Attitude_Control_System_of_Flying_Vehicle.obj
 0003:000009d0       $SG19891                   00000001800149d0     c2_Attitude_Control_System_of_Flying_Vehicle.obj
 0003:000009e0       $SG19892                   00000001800149e0     c2_Attitude_Control_System_of_Flying_Vehicle.obj
 0003:000009f0       $SG19893                   00000001800149f0     c2_Attitude_Control_System_of_Flying_Vehicle.obj
 0003:000009f8       $SG19894                   00000001800149f8     c2_Attitude_Control_System_of_Flying_Vehicle.obj
 0003:00000a00       $SG19895                   0000000180014a00     c2_Attitude_Control_System_of_Flying_Vehicle.obj
 0003:00000ab8       $SG19944                   0000000180014ab8     c2_Attitude_Control_System_of_Flying_Vehicle.obj
 0003:00000ac0       $SG19896                   0000000180014ac0     c2_Attitude_Control_System_of_Flying_Vehicle.obj
 0003:00000b78       $SG19945                   0000000180014b78     c2_Attitude_Control_System_of_Flying_Vehicle.obj
 0003:00000b80       $SG19946                   0000000180014b80     c2_Attitude_Control_System_of_Flying_Vehicle.obj
 0003:00000b88       $SG19947                   0000000180014b88     c2_Attitude_Control_System_of_Flying_Vehicle.obj
 0003:00000b90       $SG19948                   0000000180014b90     c2_Attitude_Control_System_of_Flying_Vehicle.obj
 0003:00000b98       $SG19949                   0000000180014b98     c2_Attitude_Control_System_of_Flying_Vehicle.obj
 0003:00000ba0       $SG19950                   0000000180014ba0     c2_Attitude_Control_System_of_Flying_Vehicle.obj
 0003:00000ba8       $SG19951                   0000000180014ba8     c2_Attitude_Control_System_of_Flying_Vehicle.obj
 0003:00000bb0       $SG19952                   0000000180014bb0     c2_Attitude_Control_System_of_Flying_Vehicle.obj
 0003:00000bc0       $SG19979                   0000000180014bc0     c2_Attitude_Control_System_of_Flying_Vehicle.obj
 0003:00000bd8       $SG19002                   0000000180014bd8     c2_Attitude_Control_System_of_Flying_Vehicle.obj
 0003:00000be0       c2_debug_family_names      0000000180014be0     c2_Attitude_Control_System_of_Flying_Vehicle.obj
 0003:00000c48       $SG19004                   0000000180014c48     c2_Attitude_Control_System_of_Flying_Vehicle.obj
 0003:00000c50       $SG19005                   0000000180014c50     c2_Attitude_Control_System_of_Flying_Vehicle.obj
 0003:00000c58       $SG19006                   0000000180014c58     c2_Attitude_Control_System_of_Flying_Vehicle.obj
 0003:00000c60       $SG19007                   0000000180014c60     c2_Attitude_Control_System_of_Flying_Vehicle.obj
 0003:00000c68       $SG19008                   0000000180014c68     c2_Attitude_Control_System_of_Flying_Vehicle.obj
 0003:00000c70       $SG19009                   0000000180014c70     c2_Attitude_Control_System_of_Flying_Vehicle.obj
 0003:00000c78       $SG19010                   0000000180014c78     c2_Attitude_Control_System_of_Flying_Vehicle.obj
 0003:00000c80       $SG19011                   0000000180014c80     c2_Attitude_Control_System_of_Flying_Vehicle.obj
 0003:00000c88       $SG19012                   0000000180014c88     c2_Attitude_Control_System_of_Flying_Vehicle.obj
 0003:00000c90       $SG19013                   0000000180014c90     c2_Attitude_Control_System_of_Flying_Vehicle.obj
 0003:00000c98       $SG19014                   0000000180014c98     c2_Attitude_Control_System_of_Flying_Vehicle.obj
 0003:00000ca0       $SG20086                   0000000180014ca0     c2_Attitude_Control_System_of_Flying_Vehicle.obj
 0003:00000cc8       $SG20094                   0000000180014cc8     c2_Attitude_Control_System_of_Flying_Vehicle.obj
 0003:00000cd8       $SG20095                   0000000180014cd8     c2_Attitude_Control_System_of_Flying_Vehicle.obj
 0003:00000cf0       $SG20116                   0000000180014cf0     c2_Attitude_Control_System_of_Flying_Vehicle.obj
 0003:00000d20       $SG20131                   0000000180014d20     c2_Attitude_Control_System_of_Flying_Vehicle.obj
 0003:00000da4       $SG19225                   0000000180014da4     c2_Attitude_Control_System_of_Flying_Vehicle.obj
 0003:00000dac       $SG19226                   0000000180014dac     c2_Attitude_Control_System_of_Flying_Vehicle.obj
 0003:00000db4       $SG19227                   0000000180014db4     c2_Attitude_Control_System_of_Flying_Vehicle.obj
 0003:00000dbc       $SG19228                   0000000180014dbc     c2_Attitude_Control_System_of_Flying_Vehicle.obj
 0003:00000dc4       $SG19229                   0000000180014dc4     c2_Attitude_Control_System_of_Flying_Vehicle.obj
 0003:00000dcc       $SG19230                   0000000180014dcc     c2_Attitude_Control_System_of_Flying_Vehicle.obj
 0003:00000dd8       $SG19231                   0000000180014dd8     c2_Attitude_Control_System_of_Flying_Vehicle.obj
 0003:00000e10       $SG19232                   0000000180014e10     c2_Attitude_Control_System_of_Flying_Vehicle.obj
 0003:00000e50       $SG19486                   0000000180014e50     Attitude_Control_System_of_Flying_Vehicle_sfun_registry.obj
 0003:00000e74       $SG21014                   0000000180014e74     Attitude_Control_System_of_Flying_Vehicle_sfun_registry.obj
 0003:00000e78       _sfcnName                  0000000180014e78     Attitude_Control_System_of_Flying_Vehicle_sfun_registry.obj
 0003:00000e98       $SG20673                   0000000180014e98     Attitude_Control_System_of_Flying_Vehicle_sfun_registry.obj
 0003:00000ed0       $SG19503                   0000000180014ed0     Attitude_Control_System_of_Flying_Vehicle_sfun_registry.obj
 0003:00000f48       $SG20668                   0000000180014f48     Attitude_Control_System_of_Flying_Vehicle_sfun_registry.obj
 0003:00000f84       $SG21092                   0000000180014f84     Attitude_Control_System_of_Flying_Vehicle_sfun_registry.obj
 0003:00000f88       $SG19819                   0000000180014f88     Attitude_Control_System_of_Flying_Vehicle_sfun_registry.obj
 0003:00000f90       $SG19820                   0000000180014f90     Attitude_Control_System_of_Flying_Vehicle_sfun_registry.obj
 0003:00000f98       $SG19834                   0000000180014f98     Attitude_Control_System_of_Flying_Vehicle_sfun_registry.obj
 0003:00000fa8       $SG19857                   0000000180014fa8     Attitude_Control_System_of_Flying_Vehicle_sfun_registry.obj
 0003:00000fb4       $SG19858                   0000000180014fb4     Attitude_Control_System_of_Flying_Vehicle_sfun_registry.obj
 0003:00000fbc       $SG19339                   0000000180014fbc     Attitude_Control_System_of_Flying_Vehicle_sfun_registry.obj
 0003:00000fc8       $SG19859                   0000000180014fc8     Attitude_Control_System_of_Flying_Vehicle_sfun_registry.obj
 0003:00000fd8       $SG20999                   0000000180014fd8     Attitude_Control_System_of_Flying_Vehicle_sfun_registry.obj
 0003:00000ff0       $SG21011                   0000000180014ff0     Attitude_Control_System_of_Flying_Vehicle_sfun_registry.obj
 0003:00001030       $SG19012                   0000000180015030     Attitude_Control_System_of_Flying_Vehicle_sfun_registry.obj
 0003:00001050       $SG19014                   0000000180015050     Attitude_Control_System_of_Flying_Vehicle_sfun_registry.obj
 0003:0000107c       $SG21066                   000000018001507c     Attitude_Control_System_of_Flying_Vehicle_sfun_registry.obj
 0003:00001084       $SG21067                   0000000180015084     Attitude_Control_System_of_Flying_Vehicle_sfun_registry.obj
 0003:0000108c       $SG21068                   000000018001508c     Attitude_Control_System_of_Flying_Vehicle_sfun_registry.obj
 0003:00001098       $SG21071                   0000000180015098     Attitude_Control_System_of_Flying_Vehicle_sfun_registry.obj
 0003:000010d8       $SG21074                   00000001800150d8     Attitude_Control_System_of_Flying_Vehicle_sfun_registry.obj
 0003:000010e0       $SG21069                   00000001800150e0     Attitude_Control_System_of_Flying_Vehicle_sfun_registry.obj
 0003:00001144       $SG21077                   0000000180015144     Attitude_Control_System_of_Flying_Vehicle_sfun_registry.obj
 0003:0000114c       $SG21080                   000000018001514c     Attitude_Control_System_of_Flying_Vehicle_sfun_registry.obj
 0003:00001158       $SG21081                   0000000180015158     Attitude_Control_System_of_Flying_Vehicle_sfun_registry.obj
 0003:00001188       $SG21082                   0000000180015188     Attitude_Control_System_of_Flying_Vehicle_sfun_registry.obj
 0003:00001198       $SG21084                   0000000180015198     Attitude_Control_System_of_Flying_Vehicle_sfun_registry.obj
 0003:000011a4       $SG21086                   00000001800151a4     Attitude_Control_System_of_Flying_Vehicle_sfun_registry.obj
 0003:000011ac       $SG21088                   00000001800151ac     Attitude_Control_System_of_Flying_Vehicle_sfun_registry.obj
 0003:000011b8       $SG21090                   00000001800151b8     Attitude_Control_System_of_Flying_Vehicle_sfun_registry.obj
 0003:000011c8       $SG19088                   00000001800151c8     Attitude_Control_System_of_Flying_Vehicle_sfun_registry.obj
 0003:000011e0       $SG21095                   00000001800151e0     Attitude_Control_System_of_Flying_Vehicle_sfun_registry.obj
 0003:00001288       $SG19050                   0000000180015288     Attitude_Control_System_of_Flying_Vehicle_sfun_registry.obj
 0003:000012a8       $SG19052                   00000001800152a8     Attitude_Control_System_of_Flying_Vehicle_sfun_registry.obj
 0003:000012d8       $SG19090                   00000001800152d8     Attitude_Control_System_of_Flying_Vehicle_sfun_registry.obj
 0003:00001308       $SG19126                   0000000180015308     Attitude_Control_System_of_Flying_Vehicle_sfun_registry.obj
 0003:00001328       $SG21183                   0000000180015328     Attitude_Control_System_of_Flying_Vehicle_sfun_registry.obj
 0003:00001360       $SG20152                   0000000180015360     Attitude_Control_System_of_Flying_Vehicle_sfun_registry.obj
 0003:000013d0       $SG19128                   00000001800153d0     Attitude_Control_System_of_Flying_Vehicle_sfun_registry.obj
 0003:00001400       $SG21185                   0000000180015400     Attitude_Control_System_of_Flying_Vehicle_sfun_registry.obj
 0003:00001430       $SG20162                   0000000180015430     Attitude_Control_System_of_Flying_Vehicle_sfun_registry.obj
 0003:000014a0       $SG21188                   00000001800154a0     Attitude_Control_System_of_Flying_Vehicle_sfun_registry.obj
 0003:000014e8       $SG21195                   00000001800154e8     Attitude_Control_System_of_Flying_Vehicle_sfun_registry.obj
 0003:000014f0       $SG21190                   00000001800154f0     Attitude_Control_System_of_Flying_Vehicle_sfun_registry.obj
 0003:00001538       $SG21192                   0000000180015538     Attitude_Control_System_of_Flying_Vehicle_sfun_registry.obj
 0003:00001558       $SG21197                   0000000180015558     Attitude_Control_System_of_Flying_Vehicle_sfun_registry.obj
 0003:00001570       $SG21198                   0000000180015570     Attitude_Control_System_of_Flying_Vehicle_sfun_registry.obj
 0003:00001610       $SG19163                   0000000180015610     Attitude_Control_System_of_Flying_Vehicle_sfun_registry.obj
 0003:00001630       $SG19165                   0000000180015630     Attitude_Control_System_of_Flying_Vehicle_sfun_registry.obj
 0003:00001660       $SG19185                   0000000180015660     Attitude_Control_System_of_Flying_Vehicle_sfun_registry.obj
 0003:00001670       $SG19225                   0000000180015670     Attitude_Control_System_of_Flying_Vehicle_sfun_registry.obj
 0003:00001688       $SG21297                   0000000180015688     Attitude_Control_System_of_Flying_Vehicle_sfun_registry.obj
 0003:000016b8       $SG21301                   00000001800156b8     Attitude_Control_System_of_Flying_Vehicle_sfun_registry.obj
 0003:000016e0       $SG19256                   00000001800156e0     Attitude_Control_System_of_Flying_Vehicle_sfun_registry.obj
 0003:00001710       $SG21305                   0000000180015710     Attitude_Control_System_of_Flying_Vehicle_sfun_registry.obj
 0003:00001740       $SG21309                   0000000180015740     Attitude_Control_System_of_Flying_Vehicle_sfun_registry.obj
 0003:00001770       $SG21313                   0000000180015770     Attitude_Control_System_of_Flying_Vehicle_sfun_registry.obj
 0003:000017a8       $SG21317                   00000001800157a8     Attitude_Control_System_of_Flying_Vehicle_sfun_registry.obj
 0003:000017e0       $SG21321                   00000001800157e0     Attitude_Control_System_of_Flying_Vehicle_sfun_registry.obj
 0003:00001818       $SG21325                   0000000180015818     Attitude_Control_System_of_Flying_Vehicle_sfun_registry.obj
 0003:00001850       $SG21329                   0000000180015850     Attitude_Control_System_of_Flying_Vehicle_sfun_registry.obj
 0003:00001880       $SG21333                   0000000180015880     Attitude_Control_System_of_Flying_Vehicle_sfun_registry.obj
 0003:000018b0       $SG21337                   00000001800158b0     Attitude_Control_System_of_Flying_Vehicle_sfun_registry.obj
 0003:000018e0       $SG21341                   00000001800158e0     Attitude_Control_System_of_Flying_Vehicle_sfun_registry.obj
 0003:00001910       $SG21345                   0000000180015910     Attitude_Control_System_of_Flying_Vehicle_sfun_registry.obj
 0003:00001940       $SG21349                   0000000180015940     Attitude_Control_System_of_Flying_Vehicle_sfun_registry.obj
 0003:00001970       $SG21353                   0000000180015970     Attitude_Control_System_of_Flying_Vehicle_sfun_registry.obj
 0003:000019a8       $SG21357                   00000001800159a8     Attitude_Control_System_of_Flying_Vehicle_sfun_registry.obj
 0003:000019e0       $SG21361                   00000001800159e0     Attitude_Control_System_of_Flying_Vehicle_sfun_registry.obj
 0003:00001a10       $SG21366                   0000000180015a10     Attitude_Control_System_of_Flying_Vehicle_sfun_registry.obj
 0003:00001a38       $SG21370                   0000000180015a38     Attitude_Control_System_of_Flying_Vehicle_sfun_registry.obj
 0003:00001a58       $SG21374                   0000000180015a58     Attitude_Control_System_of_Flying_Vehicle_sfun_registry.obj
 0003:00001a88       $SG21378                   0000000180015a88     Attitude_Control_System_of_Flying_Vehicle_sfun_registry.obj
 0003:00001aa8       $SG21382                   0000000180015aa8     Attitude_Control_System_of_Flying_Vehicle_sfun_registry.obj
 0003:00001ac8       $SG21386                   0000000180015ac8     Attitude_Control_System_of_Flying_Vehicle_sfun_registry.obj
 0003:00001ae8       $SG19340                   0000000180015ae8     Attitude_Control_System_of_Flying_Vehicle_sfun_registry.obj
 0003:00001b00       $SG21390                   0000000180015b00     Attitude_Control_System_of_Flying_Vehicle_sfun_registry.obj
 0003:00001b28       $SG19345                   0000000180015b28     Attitude_Control_System_of_Flying_Vehicle_sfun_registry.obj
 0003:00001b30       $SG21394                   0000000180015b30     Attitude_Control_System_of_Flying_Vehicle_sfun_registry.obj
 0003:00001b58       $SG19346                   0000000180015b58     Attitude_Control_System_of_Flying_Vehicle_sfun_registry.obj
 0003:00001b78       $SG21398                   0000000180015b78     Attitude_Control_System_of_Flying_Vehicle_sfun_registry.obj
 0003:00001ba0       $SG20377                   0000000180015ba0     Attitude_Control_System_of_Flying_Vehicle_sfun_registry.obj
 0003:00001be0       $SG20380                   0000000180015be0     Attitude_Control_System_of_Flying_Vehicle_sfun_registry.obj
 0003:00001c10       $SG21406                   0000000180015c10     Attitude_Control_System_of_Flying_Vehicle_sfun_registry.obj
 0003:00001c30       $SG20385                   0000000180015c30     Attitude_Control_System_of_Flying_Vehicle_sfun_registry.obj
 0003:00001c78       $SG21410                   0000000180015c78     Attitude_Control_System_of_Flying_Vehicle_sfun_registry.obj
 0003:00001ca0       $SG21414                   0000000180015ca0     Attitude_Control_System_of_Flying_Vehicle_sfun_registry.obj
 0003:00001cc8       $SG20393                   0000000180015cc8     Attitude_Control_System_of_Flying_Vehicle_sfun_registry.obj
 0003:00001d00       $SG21419                   0000000180015d00     Attitude_Control_System_of_Flying_Vehicle_sfun_registry.obj
 0003:00001d28       $SG21423                   0000000180015d28     Attitude_Control_System_of_Flying_Vehicle_sfun_registry.obj
 0003:00001da0       sRtwOptimizationInfoStruct 0000000180015da0     Attitude_Control_System_of_Flying_Vehicle_sfun.obj
 0003:00001da8       sOptimizationInfoFlags     0000000180015da8     Attitude_Control_System_of_Flying_Vehicle_sfun.obj
 0003:00001db0       $SG19862                   0000000180015db0     c2_Attitude_Control_System_of_Flying_Vehicle.obj
 0003:00001db1       $SG19863                   0000000180015db1     c2_Attitude_Control_System_of_Flying_Vehicle.obj
 0003:00001db2       $SG19880                   0000000180015db2     c2_Attitude_Control_System_of_Flying_Vehicle.obj
 0003:00001db8       _sfTime_                   0000000180015db8     c2_Attitude_Control_System_of_Flying_Vehicle.obj
 0003:00001dc8       $SG21062                   0000000180015dc8     Attitude_Control_System_of_Flying_Vehicle_sfun_registry.obj
 0003:00001dcc       sfGlobalMdlStartCallCounts 0000000180015dcc     Attitude_Control_System_of_Flying_Vehicle_sfun_registry.obj
 0003:00001dd0       ?errmsg@?O@??ssWriteRTWWorkVect@@9@9 0000000180015dd0     Attitude_Control_System_of_Flying_Vehicle_sfun_registry.obj
 0003:00001ea0       GS_ExceptionRecord         0000000180015ea0     MSVCRT:gs_report.obj
 0003:00001f40       GS_ContextRecord           0000000180015f40     MSVCRT:gs_report.obj
 0003:00002410       ?__proc_attached@@3HA      0000000180016410     MSVCRT:dll_dllmain.obj
 0003:00002428       ?module_local_atexit_table@@3U_onexit_table_t@@A 0000000180016428     MSVCRT:utility.obj
 0003:00002440       ?module_local_at_quick_exit_table@@3U_onexit_table_t@@A 0000000180016440     MSVCRT:utility.obj
 0003:00002458       ?is_initialized_as_dll@@3_NA 0000000180016458     MSVCRT:utility.obj
 0004:00000000       $pdata$load_Attitude_Control_System_of_Flying_Vehicle_optimization_info 0000000180017000     Attitude_Control_System_of_Flying_Vehicle_sfun.obj
 0004:0000000c       $pdata$unload_Attitude_Control_System_of_Flying_Vehicle_optimization_info 000000018001700c     Attitude_Control_System_of_Flying_Vehicle_sfun.obj
 0004:00000018       $pdata$sf_Attitude_Control_System_of_Flying_Vehicle_method_dispatcher 0000000180017018     Attitude_Control_System_of_Flying_Vehicle_sfun.obj
 0004:00000024       $pdata$sf_Attitude_Control_System_of_Flying_Vehicle_process_check_sum_call 0000000180017024     Attitude_Control_System_of_Flying_Vehicle_sfun.obj
 0004:00000030       $pdata$sf_Attitude_Control_System_of_Flying_Vehicle_autoinheritance_info 0000000180017030     Attitude_Control_System_of_Flying_Vehicle_sfun.obj
 0004:0000003c       $pdata$sf_Attitude_Control_System_of_Flying_Vehicle_get_eml_resolved_functions_info 000000018001703c     Attitude_Control_System_of_Flying_Vehicle_sfun.obj
 0004:00000048       $pdata$sf_Attitude_Control_System_of_Flying_Vehicle_third_party_uses_info 0000000180017048     Attitude_Control_System_of_Flying_Vehicle_sfun.obj
 0004:00000054       $pdata$sf_Attitude_Control_System_of_Flying_Vehicle_jit_fallback_info 0000000180017054     Attitude_Control_System_of_Flying_Vehicle_sfun.obj
 0004:00000060       $pdata$sf_Attitude_Control_System_of_Flying_Vehicle_updateBuildInfo_args_info 0000000180017060     Attitude_Control_System_of_Flying_Vehicle_sfun.obj
 0004:0000006c       $pdata$Attitude_Control_System_of_Flying_Vehicle_debug_initialize 000000018001706c     Attitude_Control_System_of_Flying_Vehicle_sfun.obj
 0004:00000078       $pdata$sf_c2_Attitude_Control_System_of_Flying_Vehicle_get_eml_resolved_functions_info 0000000180017078     c2_Attitude_Control_System_of_Flying_Vehicle.obj
 0004:00000084       $pdata$sf_c2_Attitude_Control_System_of_Flying_Vehicle_get_check_sum 0000000180017084     c2_Attitude_Control_System_of_Flying_Vehicle.obj
 0004:00000090       $pdata$c2_Attitude_Control_System_of_Flying_Vehicle_method_dispatcher 0000000180017090     c2_Attitude_Control_System_of_Flying_Vehicle.obj
 0004:0000009c       $pdata$chart_debug_initialization 000000018001709c     c2_Attitude_Control_System_of_Flying_Vehicle.obj
 0004:000000a8       $pdata$chart_debug_initialize_data_addresses 00000001800170a8     c2_Attitude_Control_System_of_Flying_Vehicle.obj
 0004:000000b4       $pdata$initialize_c2_Attitude_Control_System_of_Flying_Vehicle 00000001800170b4     c2_Attitude_Control_System_of_Flying_Vehicle.obj
 0004:000000c0       $pdata$enable_c2_Attitude_Control_System_of_Flying_Vehicle 00000001800170c0     c2_Attitude_Control_System_of_Flying_Vehicle.obj
 0004:000000cc       $pdata$disable_c2_Attitude_Control_System_of_Flying_Vehicle 00000001800170cc     c2_Attitude_Control_System_of_Flying_Vehicle.obj
 0004:000000d8       $pdata$get_sim_state_c2_Attitude_Control_System_of_Flying_Vehicle 00000001800170d8     c2_Attitude_Control_System_of_Flying_Vehicle.obj
 0004:000000e4       $pdata$set_sim_state_c2_Attitude_Control_System_of_Flying_Vehicle 00000001800170e4     c2_Attitude_Control_System_of_Flying_Vehicle.obj
 0004:000000f0       $pdata$sf_gateway_c2_Attitude_Control_System_of_Flying_Vehicle 00000001800170f0     c2_Attitude_Control_System_of_Flying_Vehicle.obj
 0004:000000fc       $pdata$c2_sf_marshallOut   00000001800170fc     c2_Attitude_Control_System_of_Flying_Vehicle.obj
 0004:00000108       $pdata$c2_emlrt_marshallIn 0000000180017108     c2_Attitude_Control_System_of_Flying_Vehicle.obj
 0004:00000114       $pdata$c2_b_emlrt_marshallIn 0000000180017114     c2_Attitude_Control_System_of_Flying_Vehicle.obj
 0004:00000120       $pdata$c2_sf_marshallIn    0000000180017120     c2_Attitude_Control_System_of_Flying_Vehicle.obj
 0004:0000012c       $pdata$c2_b_sf_marshallOut 000000018001712c     c2_Attitude_Control_System_of_Flying_Vehicle.obj
 0004:00000138       $pdata$c2_c_emlrt_marshallIn 0000000180017138     c2_Attitude_Control_System_of_Flying_Vehicle.obj
 0004:00000144       $pdata$c2_b_sf_marshallIn  0000000180017144     c2_Attitude_Control_System_of_Flying_Vehicle.obj
 0004:00000150       $pdata$c2_c_sf_marshallOut 0000000180017150     c2_Attitude_Control_System_of_Flying_Vehicle.obj
 0004:0000015c       $pdata$c2_d_emlrt_marshallIn 000000018001715c     c2_Attitude_Control_System_of_Flying_Vehicle.obj
 0004:00000168       $pdata$c2_c_sf_marshallIn  0000000180017168     c2_Attitude_Control_System_of_Flying_Vehicle.obj
 0004:00000174       $pdata$c2_f_emlrt_marshallIn 0000000180017174     c2_Attitude_Control_System_of_Flying_Vehicle.obj
 0004:00000180       $pdata$c2_g_emlrt_marshallIn 0000000180017180     c2_Attitude_Control_System_of_Flying_Vehicle.obj
 0004:0000018c       $pdata$init_simulink_io_address 000000018001718c     c2_Attitude_Control_System_of_Flying_Vehicle.obj
 0004:00000198       $pdata$sf_c2_Attitude_Control_System_of_Flying_Vehicle_get_post_codegen_info 0000000180017198     c2_Attitude_Control_System_of_Flying_Vehicle.obj
 0004:000001a4       $pdata$sf_c2_Attitude_Control_System_of_Flying_Vehicle_get_autoinheritance_info 00000001800171a4     c2_Attitude_Control_System_of_Flying_Vehicle.obj
 0004:000001b0       $pdata$sf_c2_Attitude_Control_System_of_Flying_Vehicle_third_party_uses_info 00000001800171b0     c2_Attitude_Control_System_of_Flying_Vehicle.obj
 0004:000001bc       $pdata$sf_c2_Attitude_Control_System_of_Flying_Vehicle_jit_fallback_info 00000001800171bc     c2_Attitude_Control_System_of_Flying_Vehicle.obj
 0004:000001c8       $pdata$sf_c2_Attitude_Control_System_of_Flying_Vehicle_updateBuildInfo_args_info 00000001800171c8     c2_Attitude_Control_System_of_Flying_Vehicle.obj
 0004:000001d4       $pdata$sf_get_sim_state_info_c2_Attitude_Control_System_of_Flying_Vehicle 00000001800171d4     c2_Attitude_Control_System_of_Flying_Vehicle.obj
 0004:000001e0       $pdata$sf_opaque_initialize_c2_Attitude_Control_System_of_Flying_Vehicle 00000001800171e0     c2_Attitude_Control_System_of_Flying_Vehicle.obj
 0004:000001ec       $pdata$sf_opaque_enable_c2_Attitude_Control_System_of_Flying_Vehicle 00000001800171ec     c2_Attitude_Control_System_of_Flying_Vehicle.obj
 0004:000001f8       $pdata$sf_opaque_disable_c2_Attitude_Control_System_of_Flying_Vehicle 00000001800171f8     c2_Attitude_Control_System_of_Flying_Vehicle.obj
 0004:00000204       $pdata$sf_opaque_gateway_c2_Attitude_Control_System_of_Flying_Vehicle 0000000180017204     c2_Attitude_Control_System_of_Flying_Vehicle.obj
 0004:00000210       $pdata$sf_opaque_get_sim_state_c2_Attitude_Control_System_of_Flying_Vehicle 0000000180017210     c2_Attitude_Control_System_of_Flying_Vehicle.obj
 0004:0000021c       $pdata$sf_opaque_set_sim_state_c2_Attitude_Control_System_of_Flying_Vehicle 000000018001721c     c2_Attitude_Control_System_of_Flying_Vehicle.obj
 0004:00000228       $pdata$sf_opaque_terminate_c2_Attitude_Control_System_of_Flying_Vehicle 0000000180017228     c2_Attitude_Control_System_of_Flying_Vehicle.obj
 0004:00000234       $pdata$mdlProcessParameters_c2_Attitude_Control_System_of_Flying_Vehicle 0000000180017234     c2_Attitude_Control_System_of_Flying_Vehicle.obj
 0004:00000240       $pdata$mdlSetWorkWidths_c2_Attitude_Control_System_of_Flying_Vehicle 0000000180017240     c2_Attitude_Control_System_of_Flying_Vehicle.obj
 0004:0000024c       $pdata$mdlRTW_c2_Attitude_Control_System_of_Flying_Vehicle 000000018001724c     c2_Attitude_Control_System_of_Flying_Vehicle.obj
 0004:00000258       $pdata$mdlStart_c2_Attitude_Control_System_of_Flying_Vehicle 0000000180017258     c2_Attitude_Control_System_of_Flying_Vehicle.obj
 0004:00000264       $pdata$mexFunction         0000000180017264     Attitude_Control_System_of_Flying_Vehicle_sfun_registry.obj
 0004:00000270       $pdata$_ssSetInputPortDirectFeedThroughFcn 0000000180017270     Attitude_Control_System_of_Flying_Vehicle_sfun_registry.obj
 0004:0000027c       $pdata$_ssGetInputPortSignalPtrsFcn 000000018001727c     Attitude_Control_System_of_Flying_Vehicle_sfun_registry.obj
 0004:00000288       $pdata$_ssGetInputPortSignalFcn 0000000180017288     Attitude_Control_System_of_Flying_Vehicle_sfun_registry.obj
 0004:00000294       $pdata$_ssSetInputPortReusableFcn 0000000180017294     Attitude_Control_System_of_Flying_Vehicle_sfun_registry.obj
 0004:000002a0       $pdata$_ssSetOutputPortReusableFcn 00000001800172a0     Attitude_Control_System_of_Flying_Vehicle_sfun_registry.obj
 0004:000002ac       $pdata$_ssSetSymbolicDimsSupport 00000001800172ac     Attitude_Control_System_of_Flying_Vehicle_sfun_registry.obj
 0004:000002b8       $pdata$_ssRegisterSymbolicDimsExpr 00000001800172b8     Attitude_Control_System_of_Flying_Vehicle_sfun_registry.obj
 0004:000002c4       $pdata$_ssRegisterSymbolicDims 00000001800172c4     Attitude_Control_System_of_Flying_Vehicle_sfun_registry.obj
 0004:000002d0       $pdata$_ssRegisterSymbolicDimsString 00000001800172d0     Attitude_Control_System_of_Flying_Vehicle_sfun_registry.obj
 0004:000002dc       $pdata$_ssRegisterSymbolicDimsIntValue 00000001800172dc     Attitude_Control_System_of_Flying_Vehicle_sfun_registry.obj
 0004:000002e8       $pdata$_ssRegisterSymbolicDimsPlus 00000001800172e8     Attitude_Control_System_of_Flying_Vehicle_sfun_registry.obj
 0004:000002f4       $pdata$_ssRegisterSymbolicDimsMinus 00000001800172f4     Attitude_Control_System_of_Flying_Vehicle_sfun_registry.obj
 0004:00000300       $pdata$_ssRegisterSymbolicDimsMultiply 0000000180017300     Attitude_Control_System_of_Flying_Vehicle_sfun_registry.obj
 0004:0000030c       $pdata$_ssRegisterSymbolicDimsDivide 000000018001730c     Attitude_Control_System_of_Flying_Vehicle_sfun_registry.obj
 0004:00000318       $pdata$_ssGetNumSymbolicDims 0000000180017318     Attitude_Control_System_of_Flying_Vehicle_sfun_registry.obj
 0004:00000324       $pdata$_ssGetSymbolicDim   0000000180017324     Attitude_Control_System_of_Flying_Vehicle_sfun_registry.obj
 0004:00000330       $pdata$_ssSetInputPortSymbolicDimsId 0000000180017330     Attitude_Control_System_of_Flying_Vehicle_sfun_registry.obj
 0004:0000033c       $pdata$_ssGetCompInputPortSymbolicDimsId 000000018001733c     Attitude_Control_System_of_Flying_Vehicle_sfun_registry.obj
 0004:00000348       $pdata$_ssSetCompInputPortSymbolicDimsId 0000000180017348     Attitude_Control_System_of_Flying_Vehicle_sfun_registry.obj
 0004:00000354       $pdata$_ssSetOutputPortSymbolicDimsId 0000000180017354     Attitude_Control_System_of_Flying_Vehicle_sfun_registry.obj
 0004:00000360       $pdata$_ssGetCompOutputPortSymbolicDimsId 0000000180017360     Attitude_Control_System_of_Flying_Vehicle_sfun_registry.obj
 0004:0000036c       $pdata$_ssSetCompOutputPortSymbolicDimsId 000000018001736c     Attitude_Control_System_of_Flying_Vehicle_sfun_registry.obj
 0004:00000378       $pdata$_ssSetCompDWorkSymbolicDimsId 0000000180017378     Attitude_Control_System_of_Flying_Vehicle_sfun_registry.obj
 0004:00000384       $pdata$ssGetIsZeroCrossControlDisabled 0000000180017384     Attitude_Control_System_of_Flying_Vehicle_sfun_registry.obj
 0004:00000390       $pdata$ssSetIsInputPortUsedForContZcSignal 0000000180017390     Attitude_Control_System_of_Flying_Vehicle_sfun_registry.obj
 0004:0000039c       $pdata$ssSetZcSignalIsZcElementDisc 000000018001739c     Attitude_Control_System_of_Flying_Vehicle_sfun_registry.obj
 0004:000003a8       $pdata$ssSetZcSignalName   00000001800173a8     Attitude_Control_System_of_Flying_Vehicle_sfun_registry.obj
 0004:000003b4       $pdata$ssSetZcSignalWidth  00000001800173b4     Attitude_Control_System_of_Flying_Vehicle_sfun_registry.obj
 0004:000003c0       $pdata$ssSetZcSignalZcEventType 00000001800173c0     Attitude_Control_System_of_Flying_Vehicle_sfun_registry.obj
 0004:000003cc       $pdata$ssSetZcSignalType   00000001800173cc     Attitude_Control_System_of_Flying_Vehicle_sfun_registry.obj
 0004:000003d8       $pdata$ssSetZcSignalZcTol  00000001800173d8     Attitude_Control_System_of_Flying_Vehicle_sfun_registry.obj
 0004:000003e4       $pdata$ssSetZcSignalNeedsEventNotification 00000001800173e4     Attitude_Control_System_of_Flying_Vehicle_sfun_registry.obj
 0004:000003f0       $pdata$ssCreateAndAddZcSignalInfo 00000001800173f0     Attitude_Control_System_of_Flying_Vehicle_sfun_registry.obj
 0004:000003fc       $pdata$ssCloneAndAddZcSignalInfo 00000001800173fc     Attitude_Control_System_of_Flying_Vehicle_sfun_registry.obj
 0004:00000408       $pdata$ssGetNumZcSignals   0000000180017408     Attitude_Control_System_of_Flying_Vehicle_sfun_registry.obj
 0004:00000414       $pdata$ssGetZcSignalVector 0000000180017414     Attitude_Control_System_of_Flying_Vehicle_sfun_registry.obj
 0004:00000420       $pdata$ssGetZcSignalName   0000000180017420     Attitude_Control_System_of_Flying_Vehicle_sfun_registry.obj
 0004:0000042c       $pdata$ssGetZcSignalWidth  000000018001742c     Attitude_Control_System_of_Flying_Vehicle_sfun_registry.obj
 0004:00000438       $pdata$ssGetZcSignalZcEventType 0000000180017438     Attitude_Control_System_of_Flying_Vehicle_sfun_registry.obj
 0004:00000444       $pdata$ssGetZcSignalZcEvents 0000000180017444     Attitude_Control_System_of_Flying_Vehicle_sfun_registry.obj
 0004:00000450       $pdata$ssGetZcSignalType   0000000180017450     Attitude_Control_System_of_Flying_Vehicle_sfun_registry.obj
 0004:0000045c       $pdata$ssGetZcSignalZcTol  000000018001745c     Attitude_Control_System_of_Flying_Vehicle_sfun_registry.obj
 0004:00000468       $pdata$ssGetZcSignalNeedsEventNotification 0000000180017468     Attitude_Control_System_of_Flying_Vehicle_sfun_registry.obj
 0004:00000474       $pdata$ssGetZcSignalIsZcElementDisc 0000000180017474     Attitude_Control_System_of_Flying_Vehicle_sfun_registry.obj
 0004:00000480       $pdata$ssGetIsInputPortElementContinuous 0000000180017480     Attitude_Control_System_of_Flying_Vehicle_sfun_registry.obj
 0004:0000048c       $pdata$ssGetDTypeIdFromMxArray 000000018001748c     Attitude_Control_System_of_Flying_Vehicle_sfun_registry.obj
 0004:00000498       $pdata$ssWriteRTWStr       0000000180017498     Attitude_Control_System_of_Flying_Vehicle_sfun_registry.obj
 0004:000004a4       $pdata$ssWriteRTWNameValuePair 00000001800174a4     Attitude_Control_System_of_Flying_Vehicle_sfun_registry.obj
 0004:000004b0       $pdata$ssWriteRTWParamSettings 00000001800174b0     Attitude_Control_System_of_Flying_Vehicle_sfun_registry.obj
 0004:000004bc       $pdata$ssWriteRTWParameters 00000001800174bc     Attitude_Control_System_of_Flying_Vehicle_sfun_registry.obj
 0004:000004c8       $pdata$ssWriteRTWWorkVect  00000001800174c8     Attitude_Control_System_of_Flying_Vehicle_sfun_registry.obj
 0004:000004d4       $pdata$ssWriteRTWMxVectParam 00000001800174d4     Attitude_Control_System_of_Flying_Vehicle_sfun_registry.obj
 0004:000004e0       $pdata$ssWriteRTWMx2dMatParam 00000001800174e0     Attitude_Control_System_of_Flying_Vehicle_sfun_registry.obj
 0004:000004ec       $pdata$_ssSetInputPortMatrixDimensions 00000001800174ec     Attitude_Control_System_of_Flying_Vehicle_sfun_registry.obj
 0004:000004f8       $pdata$_ssSetOutputPortMatrixDimensions 00000001800174f8     Attitude_Control_System_of_Flying_Vehicle_sfun_registry.obj
 0004:00000504       $pdata$_ssSetInputPortVectorDimension 0000000180017504     Attitude_Control_System_of_Flying_Vehicle_sfun_registry.obj
 0004:00000510       $pdata$_ssSetOutputPortVectorDimension 0000000180017510     Attitude_Control_System_of_Flying_Vehicle_sfun_registry.obj
 0004:0000051c       $pdata$ssIsRunTimeParamTunable 000000018001751c     Attitude_Control_System_of_Flying_Vehicle_sfun_registry.obj
 0004:00000528       $pdata$ssGetSFuncBlockHandle 0000000180017528     Attitude_Control_System_of_Flying_Vehicle_sfun_registry.obj
 0004:00000534       $pdata$_ssGetCurrentInputPortWidth 0000000180017534     Attitude_Control_System_of_Flying_Vehicle_sfun_registry.obj
 0004:00000540       $pdata$_ssGetCurrentOutputPortWidth 0000000180017540     Attitude_Control_System_of_Flying_Vehicle_sfun_registry.obj
 0004:0000054c       $pdata$_ssGetCallSystemNumFcnCallDestinations 000000018001754c     Attitude_Control_System_of_Flying_Vehicle_sfun_registry.obj
 0004:00000558       $pdata$ssGetParameterTuningCompliance 0000000180017558     Attitude_Control_System_of_Flying_Vehicle_sfun_registry.obj
 0004:00000564       $pdata$ssWarning           0000000180017564     Attitude_Control_System_of_Flying_Vehicle_sfun_registry.obj
 0004:00000570       $pdata$_ssGetAbsTol        0000000180017570     Attitude_Control_System_of_Flying_Vehicle_sfun_registry.obj
 0004:0000057c       $pdata$sf_process_check_sum_call 000000018001757c     Attitude_Control_System_of_Flying_Vehicle_sfun_registry.obj
 0004:00000588       $pdata$sf_process_autoinheritance_call 0000000180017588     Attitude_Control_System_of_Flying_Vehicle_sfun_registry.obj
 0004:00000594       $pdata$sf_process_get_third_party_uses_info_call 0000000180017594     Attitude_Control_System_of_Flying_Vehicle_sfun_registry.obj
 0004:000005a0       $pdata$sf_process_get_jit_fallback_info_call 00000001800175a0     Attitude_Control_System_of_Flying_Vehicle_sfun_registry.obj
 0004:000005ac       $pdata$sf_process_get_updateBuildInfo_args_info_call 00000001800175ac     Attitude_Control_System_of_Flying_Vehicle_sfun_registry.obj
 0004:000005b8       $pdata$sf_process_get_eml_resolved_functions_info_call 00000001800175b8     Attitude_Control_System_of_Flying_Vehicle_sfun_registry.obj
 0004:000005c4       $pdata$sf_mex_unlock_call  00000001800175c4     Attitude_Control_System_of_Flying_Vehicle_sfun_registry.obj
 0004:000005d0       $pdata$sf_debug_api_wrapper 00000001800175d0     Attitude_Control_System_of_Flying_Vehicle_sfun_registry.obj
 0004:000005dc       $pdata$ProcessMexSfunctionCmdLineCall 00000001800175dc     Attitude_Control_System_of_Flying_Vehicle_sfun_registry.obj
 0004:000005e8       $pdata$sf_machine_global_initializer_called 00000001800175e8     Attitude_Control_System_of_Flying_Vehicle_sfun_registry.obj
 0004:000005f4       $pdata$sf_machine_global_method_dispatcher 00000001800175f4     Attitude_Control_System_of_Flying_Vehicle_sfun_registry.obj
 0004:00000600       $pdata$sf_machine_global_terminator 0000000180017600     Attitude_Control_System_of_Flying_Vehicle_sfun_registry.obj
 0004:0000060c       $pdata$sf_register_machine_exported_symbols 000000018001760c     Attitude_Control_System_of_Flying_Vehicle_sfun_registry.obj
 0004:00000618       $pdata$sf_machine_global_initializer 0000000180017618     Attitude_Control_System_of_Flying_Vehicle_sfun_registry.obj
 0004:00000624       $pdata$mdlGetSimState      0000000180017624     Attitude_Control_System_of_Flying_Vehicle_sfun_registry.obj
 0004:00000630       $pdata$mdlSetSimState      0000000180017630     Attitude_Control_System_of_Flying_Vehicle_sfun_registry.obj
 0004:0000063c       $pdata$mdlSetWorkWidths    000000018001763c     Attitude_Control_System_of_Flying_Vehicle_sfun_registry.obj
 0004:00000648       $pdata$mdlProcessParameters 0000000180017648     Attitude_Control_System_of_Flying_Vehicle_sfun_registry.obj
 0004:00000654       $pdata$mdl_start_processing 0000000180017654     Attitude_Control_System_of_Flying_Vehicle_sfun_registry.obj
 0004:00000660       $pdata$mdl_terminate_processing 0000000180017660     Attitude_Control_System_of_Flying_Vehicle_sfun_registry.obj
 0004:0000066c       $pdata$mdlStart            000000018001766c     Attitude_Control_System_of_Flying_Vehicle_sfun_registry.obj
 0004:00000678       $pdata$mdlTerminate        0000000180017678     Attitude_Control_System_of_Flying_Vehicle_sfun_registry.obj
 0004:00000684       $pdata$mdlInitializeSizes  0000000180017684     Attitude_Control_System_of_Flying_Vehicle_sfun_registry.obj
 0004:00000690       $pdata$mdlInitializeSampleTimes 0000000180017690     Attitude_Control_System_of_Flying_Vehicle_sfun_registry.obj
 0004:0000069c       $pdata$mdl_outputs_continuous_legacy 000000018001769c     Attitude_Control_System_of_Flying_Vehicle_sfun_registry.obj
 0004:000006a8       $pdata$mdl_outputs_processing 00000001800176a8     Attitude_Control_System_of_Flying_Vehicle_sfun_registry.obj
 0004:000006b4       $pdata$mdl_zeroCrossings_processing 00000001800176b4     Attitude_Control_System_of_Flying_Vehicle_sfun_registry.obj
 0004:000006c0       $pdata$mdlZeroCrossings    00000001800176c0     Attitude_Control_System_of_Flying_Vehicle_sfun_registry.obj
 0004:000006cc       $pdata$mdl_derivatives_processing 00000001800176cc     Attitude_Control_System_of_Flying_Vehicle_sfun_registry.obj
 0004:000006d8       $pdata$mdlDerivatives      00000001800176d8     Attitude_Control_System_of_Flying_Vehicle_sfun_registry.obj
 0004:000006e4       $pdata$mdl_initialize_conditions_processing 00000001800176e4     Attitude_Control_System_of_Flying_Vehicle_sfun_registry.obj
 0004:000006f0       $pdata$mdlInitializeConditions 00000001800176f0     Attitude_Control_System_of_Flying_Vehicle_sfun_registry.obj
 0004:000006fc       $pdata$mdl_ext_mode_exec_processing 00000001800176fc     Attitude_Control_System_of_Flying_Vehicle_sfun_registry.obj
 0004:00000708       $pdata$mdlExtModeExec      0000000180017708     Attitude_Control_System_of_Flying_Vehicle_sfun_registry.obj
 0004:00000714       $pdata$mdlRTW              0000000180017714     Attitude_Control_System_of_Flying_Vehicle_sfun_registry.obj
 0004:00000720       $pdata$mdl_enable_processing 0000000180017720     Attitude_Control_System_of_Flying_Vehicle_sfun_registry.obj
 0004:0000072c       $pdata$mdlEnable           000000018001772c     Attitude_Control_System_of_Flying_Vehicle_sfun_registry.obj
 0004:00000738       $pdata$mdl_disable_processing 0000000180017738     Attitude_Control_System_of_Flying_Vehicle_sfun_registry.obj
 0004:00000744       $pdata$mdlDisable          0000000180017744     Attitude_Control_System_of_Flying_Vehicle_sfun_registry.obj
 0004:00000750       $pdata$mdlOutputs          0000000180017750     Attitude_Control_System_of_Flying_Vehicle_sfun_registry.obj
 0004:0000075c       $pdata$mdl_update_processing 000000018001775c     Attitude_Control_System_of_Flying_Vehicle_sfun_registry.obj
 0004:00000768       $pdata$mdlUpdate           0000000180017768     Attitude_Control_System_of_Flying_Vehicle_sfun_registry.obj
 0004:00000774       $pdata$ProcessMexSfunctionEveryCall 0000000180017774     Attitude_Control_System_of_Flying_Vehicle_sfun_registry.obj
 0004:00000780       $pdata$_RegNumInputPortsCB 0000000180017780     Attitude_Control_System_of_Flying_Vehicle_sfun_registry.obj
 0004:0000078c       $pdata$_RegNumOutputPortsCB 000000018001778c     Attitude_Control_System_of_Flying_Vehicle_sfun_registry.obj
 0004:00000798       $pdata$_CreateSimStruct    0000000180017798     Attitude_Control_System_of_Flying_Vehicle_sfun_registry.obj
 0004:000007a4       $pdata$_ssFatalError       00000001800177a4     Attitude_Control_System_of_Flying_Vehicle_sfun_registry.obj
 0004:000007b0       $pdata$_ProcessMexSfunctionCmdLineCall 00000001800177b0     Attitude_Control_System_of_Flying_Vehicle_sfun_registry.obj
 0004:000007bc       $pdata$_vsnprintf_l        00000001800177bc     Attitude_Control_System_of_Flying_Vehicle_sfun_registry.obj
 0004:000007c8       $pdata$_vsprintf_l         00000001800177c8     Attitude_Control_System_of_Flying_Vehicle_sfun_registry.obj
 0004:000007d4       $pdata$sprintf             00000001800177d4     Attitude_Control_System_of_Flying_Vehicle_sfun_registry.obj
 0004:000007e0       $pdata$__raise_securityfailure 00000001800177e0     MSVCRT:gs_report.obj
 0004:000007ec       $pdata$__report_gsfailure  00000001800177ec     MSVCRT:gs_report.obj
 0004:000007f8       $pdata$__report_rangecheckfailure 00000001800177f8     MSVCRT:gs_report.obj
 0004:00000804       $pdata$__report_securityfailure 0000000180017804     MSVCRT:gs_report.obj
 0004:00000810       $pdata$__report_securityfailureEx 0000000180017810     MSVCRT:gs_report.obj
 0004:0000081c       $pdata$capture_current_context 000000018001781c     MSVCRT:gs_report.obj
 0004:00000828       $pdata$capture_previous_context 0000000180017828     MSVCRT:gs_report.obj
 0004:00000834       $pdata$__GSHandlerCheck    0000000180017834     MSVCRT:_gshandler_.obj
 0004:00000840       $pdata$__GSHandlerCheckCommon 0000000180017840     MSVCRT:_gshandler_.obj
 0004:00000858       $pdata$?dllmain_crt_dispatch@@YAHQEAUHINSTANCE__@@KQEAX@Z 0000000180017858     MSVCRT:dll_dllmain.obj
 0004:00000864       $pdata$?dllmain_crt_process_attach@@YAHQEAUHINSTANCE__@@QEAX@Z 0000000180017864     MSVCRT:dll_dllmain.obj
 0004:00000870       $pdata$?dllmain_crt_process_detach@@YAH_N@Z 0000000180017870     MSVCRT:dll_dllmain.obj
 0004:0000087c       $pdata$?dllmain_dispatch@@YAHQEAUHINSTANCE__@@KQEAX@Z 000000018001787c     MSVCRT:dll_dllmain.obj
 0004:00000888       $pdata$?dllmain_raw@@YAHQEAUHINSTANCE__@@KQEAX@Z 0000000180017888     MSVCRT:dll_dllmain.obj
 0004:00000894       $pdata$_DllMainCRTStartup  0000000180017894     MSVCRT:dll_dllmain.obj
 0004:000008a0       $pdata$__scrt_acquire_startup_lock 00000001800178a0     MSVCRT:utility.obj
 0004:000008ac       $pdata$__scrt_dllmain_after_initialize_c 00000001800178ac     MSVCRT:utility.obj
 0004:000008b8       $pdata$__scrt_dllmain_before_initialize_c 00000001800178b8     MSVCRT:utility.obj
 0004:000008c4       $pdata$__scrt_dllmain_crt_thread_attach 00000001800178c4     MSVCRT:utility.obj
 0004:000008d0       $pdata$__scrt_dllmain_crt_thread_detach 00000001800178d0     MSVCRT:utility.obj
 0004:000008dc       $pdata$__scrt_dllmain_exception_filter 00000001800178dc     MSVCRT:utility.obj
 0004:000008e8       $pdata$__scrt_dllmain_uninitialize_c 00000001800178e8     MSVCRT:utility.obj
 0004:000008f4       $pdata$__scrt_dllmain_uninitialize_critical 00000001800178f4     MSVCRT:utility.obj
 0004:00000900       $pdata$__scrt_initialize_crt 0000000180017900     MSVCRT:utility.obj
 0004:0000090c       $pdata$__scrt_initialize_onexit_tables 000000018001790c     MSVCRT:utility.obj
 0004:00000918       $pdata$__scrt_is_nonwritable_in_current_image 0000000180017918     MSVCRT:utility.obj
 0004:00000924       $pdata$__scrt_release_startup_lock 0000000180017924     MSVCRT:utility.obj
 0004:00000930       $pdata$__scrt_uninitialize_crt 0000000180017930     MSVCRT:utility.obj
 0004:0000093c       $pdata$_onexit             000000018001793c     MSVCRT:utility.obj
 0004:00000948       $pdata$atexit              0000000180017948     MSVCRT:utility.obj
 0004:00000954       $pdata$__security_init_cookie 0000000180017954     MSVCRT:gs_support.obj
 0004:00000960       $pdata$DllMain             0000000180017960     MSVCRT:dll_dllmain_stub.obj
 0004:0000096c       $pdata$__scrt_initialize_default_local_stdio_options 000000018001796c     MSVCRT:default_local_stdio_options.obj
 0004:00000978       $pdata$__scrt_fastfail     0000000180017978     MSVCRT:utility_desktop.obj
 0004:00000984       $pdata$__scrt_get_show_window_mode 0000000180017984     MSVCRT:utility_desktop.obj
 0004:00000990       $pdata$__scrt_is_managed_app 0000000180017990     MSVCRT:utility_desktop.obj
 0004:0000099c       $pdata$__scrt_unhandled_exception_filter 000000018001799c     MSVCRT:utility_desktop.obj
 0004:000009a8       $pdata$_RTC_Initialize     00000001800179a8     MSVCRT:_initsect_.obj
 0004:000009b4       $pdata$_RTC_Terminate      00000001800179b4     MSVCRT:_initsect_.obj
 0004:000009c0       $pdata$__isa_available_init 00000001800179c0     MSVCRT:_cpu_disp_.obj
 0004:000009d8       $pdata$?fin$0@?0??dllmain_crt_process_attach@@YAHQEAUHINSTANCE__@@QEAX@Z@4HA 00000001800179d8     MSVCRT:dll_dllmain.obj
 0004:000009e4       $pdata$?fin$0@?0??dllmain_crt_process_detach@@YAH_N@Z@4HA 00000001800179e4     MSVCRT:dll_dllmain.obj
 0004:000009f0       $pdata$?filt$0@?0??dllmain_dispatch@@YAHQEAUHINSTANCE__@@KQEAX@Z@4HA 00000001800179f0     MSVCRT:dll_dllmain.obj
 0004:000009fc       $pdata$__scrt_is_nonwritable_in_current_image$filt$0 00000001800179fc     MSVCRT:utility.obj
